; ModuleID = 'C:/HOC_TAP/System_C/Final_report/A_Design_problem/3.4_bit_multiplexor_4to1/multiplexor_4bit_4to1/solution1/.autopilot/db/a.o.2.bc'
target datalayout = "e-p:64:64:64-i1:8:8-i8:8:8-i16:16:16-i32:32:32-i64:64:64-f32:32:32-f64:64:64-v64:64:64-v128:128:128-a0:0:64-s0:64:64-f80:128:128-n8:16:32:64-S128"
target triple = "x86_64-w64-mingw32"

@ssdm_ins_mux_4to1_1_0_sel_m_if = global i2 0
@ssdm_ins_mux_4to1_1_0_out_m_if = global i1 false
@ssdm_ins_mux_4to1_1_0_in3_m_if = global i1 false
@ssdm_ins_mux_4to1_1_0_in2_m_if = global i1 false
@ssdm_ins_mux_4to1_1_0_in1_m_if = global i1 false
@ssdm_ins_mux_4to1_1_0_in0_m_if = global i1 false
@ssdm_ins_mux_4to1_0_0_sel_m_if = global i2 0
@ssdm_ins_mux_4to1_0_0_out_m_if = global i1 false
@ssdm_ins_mux_4to1_0_0_in3_m_if = global i1 false
@ssdm_ins_mux_4to1_0_0_in2_m_if = global i1 false
@ssdm_ins_mux_4to1_0_0_in1_m_if = global i1 false
@ssdm_ins_mux_4to1_0_0_in0_m_if = global i1 false
@ssdm_ins_mux4bit_4to1_1_0_sel_s = global i2 0
@ssdm_ins_mux4bit_4to1_1_0_out_s = global i4 0
@ssdm_ins_mux4bit_4to1_1_0_in3_s = global i4 0
@ssdm_ins_mux4bit_4to1_1_0_in2_s = global i4 0
@ssdm_ins_mux4bit_4to1_1_0_in1_s = global i4 0
@ssdm_ins_mux4bit_4to1_1_0_in0_s = global i4 0
@mux_4to1_ssdm_thread_M_process_mux = external global i1
@mux4bit_4to1_ssdm_thread_M_do_mux = external global i1
@llvm_global_ctors_1 = appending global [2 x void ()*] [void ()* @_GLOBAL__I_a, void ()* @_GLOBAL__I_a33]
@llvm_global_ctors_0 = appending global [2 x i32] [i32 65535, i32 65535]
@p_str922 = private unnamed_addr constant [4 x i8] c"sel\00", align 1
@p_str9 = private unnamed_addr constant [7 x i8] c"\22bool\22\00", align 1
@p_str821 = private unnamed_addr constant [4 x i8] c"in3\00", align 1
@p_str8 = private unnamed_addr constant [4 x i8] c"sel\00", align 1
@p_str720 = private unnamed_addr constant [4 x i8] c"in2\00", align 1
@p_str7 = private unnamed_addr constant [4 x i8] c"in3\00", align 1
@p_str619 = private unnamed_addr constant [4 x i8] c"in1\00", align 1
@p_str6 = private unnamed_addr constant [4 x i8] c"in2\00", align 1
@p_str518 = private unnamed_addr constant [4 x i8] c"in0\00", align 1
@p_str5 = private unnamed_addr constant [4 x i8] c"in1\00", align 1
@p_str417 = private unnamed_addr constant [7 x i8] c"do_mux\00", align 1
@p_str4 = private unnamed_addr constant [4 x i8] c"in0\00", align 1
@p_str316 = private unnamed_addr constant [13 x i8] c"mux4bit_4to1\00", align 1
@p_str3 = private unnamed_addr constant [12 x i8] c"process_mux\00", align 1
@p_str2 = private unnamed_addr constant [9 x i8] c"mux_4to1\00", align 1
@p_str1427 = private unnamed_addr constant [10 x i8] c"SC_METHOD\00", align 1
@p_str13 = private unnamed_addr constant [10 x i8] c"SC_METHOD\00", align 1
@p_str1225 = private unnamed_addr constant [4 x i8] c"out\00", align 1
@p_str1124 = private unnamed_addr constant [13 x i8] c"\22sc_uint<2>\22\00", align 1
@p_str11 = private unnamed_addr constant [4 x i8] c"out\00", align 1
@p_str1023 = private unnamed_addr constant [13 x i8] c"\22sc_uint<4>\22\00", align 1
@p_str10 = private unnamed_addr constant [13 x i8] c"\22sc_uint<2>\22\00", align 1

define weak void @"mux4bit_4to1::mux4bit_4to1_mux_4to1::process_mux"(i1* %mux_4to1_in0_m_if_Val, i1* %mux_4to1_in1_m_if_Val, i1* %mux_4to1_in2_m_if_Val, i1* %mux_4to1_in3_m_if_Val, i2* %mux_4to1_sel_m_if_Val_V, i1* %mux_4to1_out_m_if_Val) {
  call void (...)* @_ssdm_op_SpecBitsMap(i1* %mux_4to1_in0_m_if_Val), !map !109
  call void (...)* @_ssdm_op_SpecBitsMap(i1* %mux_4to1_in1_m_if_Val), !map !113
  call void (...)* @_ssdm_op_SpecBitsMap(i1* %mux_4to1_in2_m_if_Val), !map !117
  call void (...)* @_ssdm_op_SpecBitsMap(i1* %mux_4to1_in3_m_if_Val), !map !121
  call void (...)* @_ssdm_op_SpecBitsMap(i2* %mux_4to1_sel_m_if_Val_V), !map !125
  call void (...)* @_ssdm_op_SpecBitsMap(i1* %mux_4to1_out_m_if_Val), !map !129
  call void @llvm.dbg.value(metadata !{i1* %mux_4to1_in0_m_if_Val}, i64 0, metadata !133), !dbg !855
  call void @llvm.dbg.value(metadata !{i1* %mux_4to1_in1_m_if_Val}, i64 0, metadata !856), !dbg !855
  call void @llvm.dbg.value(metadata !{i1* %mux_4to1_in2_m_if_Val}, i64 0, metadata !857), !dbg !855
  call void @llvm.dbg.value(metadata !{i1* %mux_4to1_in3_m_if_Val}, i64 0, metadata !858), !dbg !855
  call void @llvm.dbg.value(metadata !{i2* %mux_4to1_sel_m_if_Val_V}, i64 0, metadata !859), !dbg !855
  call void @llvm.dbg.value(metadata !{i1* %mux_4to1_out_m_if_Val}, i64 0, metadata !875), !dbg !855
  call void (...)* @_ssdm_op_SpecPort([9 x i8]* @p_str2, i32 0, [7 x i8]* @p_str9, [4 x i8]* @p_str4, i32 0, i32 0, i1* %mux_4to1_in0_m_if_Val) nounwind, !dbg !886
  call void (...)* @_ssdm_op_SpecPort([9 x i8]* @p_str2, i32 0, [7 x i8]* @p_str9, [4 x i8]* @p_str5, i32 0, i32 0, i1* %mux_4to1_in1_m_if_Val) nounwind, !dbg !888
  call void (...)* @_ssdm_op_SpecPort([9 x i8]* @p_str2, i32 0, [7 x i8]* @p_str9, [4 x i8]* @p_str6, i32 0, i32 0, i1* %mux_4to1_in2_m_if_Val) nounwind, !dbg !889
  call void (...)* @_ssdm_op_SpecPort([9 x i8]* @p_str2, i32 0, [7 x i8]* @p_str9, [4 x i8]* @p_str7, i32 0, i32 0, i1* %mux_4to1_in3_m_if_Val) nounwind, !dbg !890
  call void (...)* @_ssdm_op_SpecPort([9 x i8]* @p_str2, i32 0, [13 x i8]* @p_str10, [4 x i8]* @p_str8, i32 0, i32 0, i2* %mux_4to1_sel_m_if_Val_V) nounwind, !dbg !891
  call void (...)* @_ssdm_op_SpecPort([9 x i8]* @p_str2, i32 1, [7 x i8]* @p_str9, [4 x i8]* @p_str11, i32 0, i32 0, i1* %mux_4to1_out_m_if_Val) nounwind, !dbg !892
  call void (...)* @_ssdm_op_SpecProcessDef([9 x i8]* @p_str2, i32 0, [12 x i8]* @p_str3) nounwind, !dbg !893
  %tmp = call i32 (...)* @_ssdm_op_SpecRegionBegin([10 x i8]* @p_str13), !dbg !894
  call void (...)* @_ssdm_op_SpecProtocol(i32 1) nounwind, !dbg !895
  %val_V = call i2 @_ssdm_op_Read.ap_auto.volatile.i2P(i2* %mux_4to1_sel_m_if_Val_V), !dbg !896
  call void @llvm.dbg.value(metadata !{i2 %val_V}, i64 0, metadata !915), !dbg !896
  switch i2 %val_V, label %5 [
    i2 0, label %1
    i2 1, label %2
    i2 -2, label %3
    i2 -1, label %4
  ], !dbg !914

; <label>:1                                       ; preds = %0
  call void @llvm.dbg.value(metadata !{i1* %mux_4to1_in0_m_if_Val}, i64 0, metadata !917), !dbg !924
  %tmp_5 = call i1 @_ssdm_op_Read.ap_auto.volatile.i1P(i1* %mux_4to1_in0_m_if_Val), !dbg !933
  call void @llvm.dbg.value(metadata !{i1 %tmp_5}, i64 0, metadata !935), !dbg !925
  call void @llvm.dbg.value(metadata !{i1 %tmp_5}, i64 0, metadata !936), !dbg !943
  call void @llvm.dbg.value(metadata !{i1* %mux_4to1_out_m_if_Val}, i64 0, metadata !947), !dbg !953
  call void @_ssdm_op_Write.ap_auto.volatile.i1P(i1* %mux_4to1_out_m_if_Val, i1 %tmp_5), !dbg !955
  br label %6, !dbg !957

; <label>:2                                       ; preds = %0
  call void @llvm.dbg.value(metadata !{i1* %mux_4to1_in1_m_if_Val}, i64 0, metadata !917), !dbg !958
  %tmp_6 = call i1 @_ssdm_op_Read.ap_auto.volatile.i1P(i1* %mux_4to1_in1_m_if_Val), !dbg !962
  call void @llvm.dbg.value(metadata !{i1 %tmp_6}, i64 0, metadata !935), !dbg !959
  call void @llvm.dbg.value(metadata !{i1 %tmp_6}, i64 0, metadata !936), !dbg !963
  call void @llvm.dbg.value(metadata !{i1* %mux_4to1_out_m_if_Val}, i64 0, metadata !947), !dbg !965
  call void @_ssdm_op_Write.ap_auto.volatile.i1P(i1* %mux_4to1_out_m_if_Val, i1 %tmp_6), !dbg !967
  br label %6, !dbg !968

; <label>:3                                       ; preds = %0
  call void @llvm.dbg.value(metadata !{i1* %mux_4to1_in2_m_if_Val}, i64 0, metadata !917), !dbg !969
  %tmp_7 = call i1 @_ssdm_op_Read.ap_auto.volatile.i1P(i1* %mux_4to1_in2_m_if_Val), !dbg !973
  call void @llvm.dbg.value(metadata !{i1 %tmp_7}, i64 0, metadata !935), !dbg !970
  call void @llvm.dbg.value(metadata !{i1 %tmp_7}, i64 0, metadata !936), !dbg !974
  call void @llvm.dbg.value(metadata !{i1* %mux_4to1_out_m_if_Val}, i64 0, metadata !947), !dbg !976
  call void @_ssdm_op_Write.ap_auto.volatile.i1P(i1* %mux_4to1_out_m_if_Val, i1 %tmp_7), !dbg !978
  br label %6, !dbg !979

; <label>:4                                       ; preds = %0
  call void @llvm.dbg.value(metadata !{i1* %mux_4to1_in3_m_if_Val}, i64 0, metadata !917), !dbg !980
  %tmp_8 = call i1 @_ssdm_op_Read.ap_auto.volatile.i1P(i1* %mux_4to1_in3_m_if_Val), !dbg !984
  call void @llvm.dbg.value(metadata !{i1 %tmp_8}, i64 0, metadata !935), !dbg !981
  call void @llvm.dbg.value(metadata !{i1 %tmp_8}, i64 0, metadata !936), !dbg !985
  call void @llvm.dbg.value(metadata !{i1* %mux_4to1_out_m_if_Val}, i64 0, metadata !947), !dbg !987
  call void @_ssdm_op_Write.ap_auto.volatile.i1P(i1* %mux_4to1_out_m_if_Val, i1 %tmp_8), !dbg !989
  br label %6, !dbg !990

; <label>:5                                       ; preds = %0
  call void @llvm.dbg.value(metadata !{i1* %mux_4to1_out_m_if_Val}, i64 0, metadata !947), !dbg !991
  call void @_ssdm_op_Write.ap_auto.volatile.i1P(i1* %mux_4to1_out_m_if_Val, i1 false), !dbg !995
  br label %6, !dbg !996

; <label>:6                                       ; preds = %5, %4, %3, %2, %1
  %empty = call i32 (...)* @_ssdm_op_SpecRegionEnd([10 x i8]* @p_str13, i32 %tmp), !dbg !997
  ret void, !dbg !998
}

define weak void @"mux4bit_4to1::mux4bit_4to1_mux_4to1::mux_4to1"(i1* %mux_4to1_in0_m_if_Val, i1* %mux_4to1_in1_m_if_Val, i1* %mux_4to1_in2_m_if_Val, i1* %mux_4to1_in3_m_if_Val, i2* %mux_4to1_sel_m_if_Val_V, i1* %mux_4to1_out_m_if_Val) {
  call void (...)* @_ssdm_op_SpecBitsMap(i1* %mux_4to1_in0_m_if_Val), !map !109
  call void (...)* @_ssdm_op_SpecBitsMap(i1* %mux_4to1_in1_m_if_Val), !map !113
  call void (...)* @_ssdm_op_SpecBitsMap(i1* %mux_4to1_in2_m_if_Val), !map !117
  call void (...)* @_ssdm_op_SpecBitsMap(i1* %mux_4to1_in3_m_if_Val), !map !121
  call void (...)* @_ssdm_op_SpecBitsMap(i2* %mux_4to1_sel_m_if_Val_V), !map !125
  call void (...)* @_ssdm_op_SpecBitsMap(i1* %mux_4to1_out_m_if_Val), !map !129
  call void @llvm.dbg.value(metadata !{i1* %mux_4to1_in0_m_if_Val}, i64 0, metadata !999), !dbg !1002
  call void @llvm.dbg.value(metadata !{i1* %mux_4to1_in1_m_if_Val}, i64 0, metadata !1003), !dbg !1002
  call void @llvm.dbg.value(metadata !{i1* %mux_4to1_in2_m_if_Val}, i64 0, metadata !1004), !dbg !1002
  call void @llvm.dbg.value(metadata !{i1* %mux_4to1_in3_m_if_Val}, i64 0, metadata !1005), !dbg !1002
  call void @llvm.dbg.value(metadata !{i2* %mux_4to1_sel_m_if_Val_V}, i64 0, metadata !1006), !dbg !1002
  call void @llvm.dbg.value(metadata !{i1* %mux_4to1_out_m_if_Val}, i64 0, metadata !1007), !dbg !1002
  call void (...)* @_ssdm_op_SpecTopModule([9 x i8]* @p_str2, [9 x i8]* @p_str2) nounwind, !dbg !1008
  %mux_4to1_ssdm_thread_M_proc = load i1* @mux_4to1_ssdm_thread_M_process_mux, align 1, !dbg !1010
  br i1 %mux_4to1_ssdm_thread_M_proc, label %1, label %._crit_edge, !dbg !1010

; <label>:1                                       ; preds = %0
  call void @"mux4bit_4to1::mux4bit_4to1_mux_4to1::process_mux"(i1* %mux_4to1_in0_m_if_Val, i1* %mux_4to1_in1_m_if_Val, i1* %mux_4to1_in2_m_if_Val, i1* %mux_4to1_in3_m_if_Val, i2* %mux_4to1_sel_m_if_Val_V, i1* %mux_4to1_out_m_if_Val), !dbg !1011
  br label %._crit_edge, !dbg !1011

._crit_edge:                                      ; preds = %1, %0
  call void (...)* @_ssdm_op_SpecProcessDecl([9 x i8]* @p_str2, i32 0, [12 x i8]* @p_str3) nounwind, !dbg !1012
  call void (...)* @_ssdm_op_SpecSensitive([12 x i8]* @p_str3, [4 x i8]* @p_str4, i1* %mux_4to1_in0_m_if_Val, i32 0) nounwind, !dbg !1013
  call void (...)* @_ssdm_op_SpecSensitive([12 x i8]* @p_str3, [4 x i8]* @p_str5, i1* %mux_4to1_in1_m_if_Val, i32 0) nounwind, !dbg !1014
  call void (...)* @_ssdm_op_SpecSensitive([12 x i8]* @p_str3, [4 x i8]* @p_str6, i1* %mux_4to1_in2_m_if_Val, i32 0) nounwind, !dbg !1015
  call void (...)* @_ssdm_op_SpecSensitive([12 x i8]* @p_str3, [4 x i8]* @p_str7, i1* %mux_4to1_in3_m_if_Val, i32 0) nounwind, !dbg !1016
  call void (...)* @_ssdm_op_SpecSensitive([12 x i8]* @p_str3, [4 x i8]* @p_str8, i2* %mux_4to1_sel_m_if_Val_V, i32 0) nounwind, !dbg !1017
  call void (...)* @_ssdm_op_SpecPort([9 x i8]* @p_str2, i32 0, [7 x i8]* @p_str9, [4 x i8]* @p_str4, i32 0, i32 0, i1* %mux_4to1_in0_m_if_Val) nounwind, !dbg !1018
  call void (...)* @_ssdm_op_SpecPort([9 x i8]* @p_str2, i32 0, [7 x i8]* @p_str9, [4 x i8]* @p_str5, i32 0, i32 0, i1* %mux_4to1_in1_m_if_Val) nounwind, !dbg !1019
  call void (...)* @_ssdm_op_SpecPort([9 x i8]* @p_str2, i32 0, [7 x i8]* @p_str9, [4 x i8]* @p_str6, i32 0, i32 0, i1* %mux_4to1_in2_m_if_Val) nounwind, !dbg !1020
  call void (...)* @_ssdm_op_SpecPort([9 x i8]* @p_str2, i32 0, [7 x i8]* @p_str9, [4 x i8]* @p_str7, i32 0, i32 0, i1* %mux_4to1_in3_m_if_Val) nounwind, !dbg !1021
  call void (...)* @_ssdm_op_SpecPort([9 x i8]* @p_str2, i32 0, [13 x i8]* @p_str10, [4 x i8]* @p_str8, i32 0, i32 0, i2* %mux_4to1_sel_m_if_Val_V) nounwind, !dbg !1022
  call void (...)* @_ssdm_op_SpecPort([9 x i8]* @p_str2, i32 1, [7 x i8]* @p_str9, [4 x i8]* @p_str11, i32 0, i32 0, i1* %mux_4to1_out_m_if_Val) nounwind, !dbg !1023
  ret void, !dbg !1024
}

define weak void @"mux4bit_4to1::mux4bit_4to1"(i4* %in0, i4* %in1, i4* %in2, i4* %in3, i2* %sel, i4* %out_r) {
  call void (...)* @_ssdm_op_SpecBitsMap(i4* %in0), !map !1025
  call void (...)* @_ssdm_op_SpecBitsMap(i4* %in1), !map !1029
  call void (...)* @_ssdm_op_SpecBitsMap(i4* %in2), !map !1033
  call void (...)* @_ssdm_op_SpecBitsMap(i4* %in3), !map !1037
  call void (...)* @_ssdm_op_SpecBitsMap(i2* %sel), !map !1041
  call void (...)* @_ssdm_op_SpecBitsMap(i4* %out_r), !map !1045
  call void (...)* @_ssdm_op_SpecTopModule([13 x i8]* @p_str316, [13 x i8]* @p_str316) nounwind
  %mux4bit_4to1_ssdm_thread_M_s = load i1* @mux4bit_4to1_ssdm_thread_M_do_mux, align 1
  br i1 %mux4bit_4to1_ssdm_thread_M_s, label %1, label %._crit_edge

; <label>:1                                       ; preds = %0
  call void @"mux4bit_4to1::mux4bit_4to1_mux4bit_4to1::do_mux"(i4* %in0, i4* %in1, i4* %in2, i4* %in3, i2* %sel, i4* %out_r)
  br label %._crit_edge

._crit_edge:                                      ; preds = %1, %0
  call void (...)* @_ssdm_op_SpecProcessDecl([13 x i8]* @p_str316, i32 0, [7 x i8]* @p_str417) nounwind
  call void (...)* @_ssdm_op_SpecSensitive([7 x i8]* @p_str417, [4 x i8]* @p_str518, i4* %in0, i32 0) nounwind
  call void (...)* @_ssdm_op_SpecSensitive([7 x i8]* @p_str417, [4 x i8]* @p_str619, i4* %in1, i32 0) nounwind
  call void (...)* @_ssdm_op_SpecSensitive([7 x i8]* @p_str417, [4 x i8]* @p_str720, i4* %in2, i32 0) nounwind
  call void (...)* @_ssdm_op_SpecSensitive([7 x i8]* @p_str417, [4 x i8]* @p_str821, i4* %in3, i32 0) nounwind
  call void (...)* @_ssdm_op_SpecSensitive([7 x i8]* @p_str417, [4 x i8]* @p_str922, i2* %sel, i32 0) nounwind
  call void (...)* @_ssdm_op_SpecPort([13 x i8]* @p_str316, i32 0, [13 x i8]* @p_str1023, [4 x i8]* @p_str518, i32 0, i32 0, i4* %in0) nounwind
  call void (...)* @_ssdm_op_SpecPort([13 x i8]* @p_str316, i32 0, [13 x i8]* @p_str1023, [4 x i8]* @p_str619, i32 0, i32 0, i4* %in1) nounwind
  call void (...)* @_ssdm_op_SpecPort([13 x i8]* @p_str316, i32 0, [13 x i8]* @p_str1023, [4 x i8]* @p_str720, i32 0, i32 0, i4* %in2) nounwind
  call void (...)* @_ssdm_op_SpecPort([13 x i8]* @p_str316, i32 0, [13 x i8]* @p_str1023, [4 x i8]* @p_str821, i32 0, i32 0, i4* %in3) nounwind
  call void (...)* @_ssdm_op_SpecPort([13 x i8]* @p_str316, i32 0, [13 x i8]* @p_str1124, [4 x i8]* @p_str922, i32 0, i32 0, i2* %sel) nounwind
  call void (...)* @_ssdm_op_SpecPort([13 x i8]* @p_str316, i32 1, [13 x i8]* @p_str1023, [4 x i8]* @p_str1225, i32 0, i32 0, i4* %out_r) nounwind
  ret void
}

define weak void @"mux4bit_4to1::mux4bit_4to1_mux4bit_4to1::do_mux"(i4* %in0, i4* %in1, i4* %in2, i4* %in3, i2* %sel, i4* %out_r) {
_ifconv:
  call void (...)* @_ssdm_op_SpecBitsMap(i4* %in0), !map !1025
  call void (...)* @_ssdm_op_SpecBitsMap(i4* %in1), !map !1029
  call void (...)* @_ssdm_op_SpecBitsMap(i4* %in2), !map !1033
  call void (...)* @_ssdm_op_SpecBitsMap(i4* %in3), !map !1037
  call void (...)* @_ssdm_op_SpecBitsMap(i2* %sel), !map !1041
  call void (...)* @_ssdm_op_SpecBitsMap(i4* %out_r), !map !1045
  call void (...)* @_ssdm_op_SpecPort([13 x i8]* @p_str316, i32 0, [13 x i8]* @p_str1023, [4 x i8]* @p_str518, i32 0, i32 0, i4* %in0) nounwind
  call void (...)* @_ssdm_op_SpecPort([13 x i8]* @p_str316, i32 0, [13 x i8]* @p_str1023, [4 x i8]* @p_str619, i32 0, i32 0, i4* %in1) nounwind
  call void (...)* @_ssdm_op_SpecPort([13 x i8]* @p_str316, i32 0, [13 x i8]* @p_str1023, [4 x i8]* @p_str720, i32 0, i32 0, i4* %in2) nounwind
  call void (...)* @_ssdm_op_SpecPort([13 x i8]* @p_str316, i32 0, [13 x i8]* @p_str1023, [4 x i8]* @p_str821, i32 0, i32 0, i4* %in3) nounwind
  call void (...)* @_ssdm_op_SpecPort([13 x i8]* @p_str316, i32 0, [13 x i8]* @p_str1124, [4 x i8]* @p_str922, i32 0, i32 0, i2* %sel) nounwind
  call void (...)* @_ssdm_op_SpecPort([13 x i8]* @p_str316, i32 1, [13 x i8]* @p_str1023, [4 x i8]* @p_str1225, i32 0, i32 0, i4* %out_r) nounwind
  call void (...)* @_ssdm_op_SpecProcessDef([13 x i8]* @p_str316, i32 0, [7 x i8]* @p_str417) nounwind
  %tmp = call i32 (...)* @_ssdm_op_SpecRegionBegin([10 x i8]* @p_str1427)
  call void (...)* @_ssdm_op_SpecProtocol(i32 1) nounwind
  %mux4bit_4to1_in0_m_if_Val_V_re = call i4 @_ssdm_op_Read.ap_auto.volatile.i4P(i4* %in0)
  %mux4bit_4to1_in1_m_if_Val_V_re = call i4 @_ssdm_op_Read.ap_auto.volatile.i4P(i4* %in1)
  %mux4bit_4to1_in2_m_if_Val_V_re = call i4 @_ssdm_op_Read.ap_auto.volatile.i4P(i4* %in2)
  %tmp_9 = trunc i4 %mux4bit_4to1_in2_m_if_Val_V_re to i1
  %mux4bit_4to1_in3_m_if_Val_V_re = call i4 @_ssdm_op_Read.ap_auto.volatile.i4P(i4* %in3)
  %tmp_10 = trunc i4 %mux4bit_4to1_in3_m_if_Val_V_re to i1
  %mux4bit_4to1_sel_m_if_Val_V_re = call i2 @_ssdm_op_Read.ap_auto.volatile.i2P(i2* %sel)
  %sel_tmp = icmp eq i2 %mux4bit_4to1_sel_m_if_Val_V_re, -1
  %sel_tmp1 = and i1 %sel_tmp, %tmp_10
  %sel_tmp2 = icmp eq i2 %mux4bit_4to1_sel_m_if_Val_V_re, -2
  %sel_tmp4 = icmp eq i2 %mux4bit_4to1_sel_m_if_Val_V_re, 1
  %sel_tmp6 = icmp eq i2 %mux4bit_4to1_sel_m_if_Val_V_re, 0
  %tmp_11 = trunc i4 %mux4bit_4to1_in0_m_if_Val_V_re to i1
  %tmp_12 = trunc i4 %mux4bit_4to1_in1_m_if_Val_V_re to i1
  %tmp_13 = select i1 %sel_tmp6, i1 %tmp_11, i1 %tmp_12
  %or_cond = or i1 %sel_tmp6, %sel_tmp4
  %newSel1 = select i1 %sel_tmp2, i1 %tmp_9, i1 %sel_tmp1
  %newSel2 = select i1 %or_cond, i1 %tmp_13, i1 %newSel1
  %mux4bit_4to1_in0_m_if_Val_V_re_1 = call i4 @_ssdm_op_Read.ap_auto.volatile.i4P(i4* %in0)
  %tmp_14 = call i1 @_ssdm_op_BitSelect.i1.i4.i32(i4 %mux4bit_4to1_in0_m_if_Val_V_re_1, i32 1)
  %mux4bit_4to1_in1_m_if_Val_V_re_1 = call i4 @_ssdm_op_Read.ap_auto.volatile.i4P(i4* %in1)
  %tmp_15 = call i1 @_ssdm_op_BitSelect.i1.i4.i32(i4 %mux4bit_4to1_in1_m_if_Val_V_re_1, i32 1)
  %mux4bit_4to1_in2_m_if_Val_V_re_1 = call i4 @_ssdm_op_Read.ap_auto.volatile.i4P(i4* %in2)
  %tmp_16 = call i1 @_ssdm_op_BitSelect.i1.i4.i32(i4 %mux4bit_4to1_in2_m_if_Val_V_re_1, i32 1)
  %mux4bit_4to1_in3_m_if_Val_V_re_1 = call i4 @_ssdm_op_Read.ap_auto.volatile.i4P(i4* %in3)
  %tmp_17 = call i1 @_ssdm_op_BitSelect.i1.i4.i32(i4 %mux4bit_4to1_in3_m_if_Val_V_re_1, i32 1)
  %mux4bit_4to1_sel_m_if_Val_V_re_1 = call i2 @_ssdm_op_Read.ap_auto.volatile.i2P(i2* %sel)
  %sel_tmp8 = icmp eq i2 %mux4bit_4to1_sel_m_if_Val_V_re_1, -1
  %sel_tmp9 = and i1 %sel_tmp8, %tmp_17
  %sel_tmp3 = icmp eq i2 %mux4bit_4to1_sel_m_if_Val_V_re_1, -2
  %sel_tmp5 = icmp eq i2 %mux4bit_4to1_sel_m_if_Val_V_re_1, 1
  %sel_tmp7 = icmp eq i2 %mux4bit_4to1_sel_m_if_Val_V_re_1, 0
  %newSel3 = select i1 %sel_tmp7, i1 %tmp_14, i1 %tmp_15
  %or_cond1 = or i1 %sel_tmp7, %sel_tmp5
  %newSel4 = select i1 %sel_tmp3, i1 %tmp_16, i1 %sel_tmp9
  %newSel5 = select i1 %or_cond1, i1 %newSel3, i1 %newSel4
  %mux4bit_4to1_in0_m_if_Val_V_re_2 = call i4 @_ssdm_op_Read.ap_auto.volatile.i4P(i4* %in0)
  %tmp_18 = call i1 @_ssdm_op_BitSelect.i1.i4.i32(i4 %mux4bit_4to1_in0_m_if_Val_V_re_2, i32 2)
  %mux4bit_4to1_in1_m_if_Val_V_re_2 = call i4 @_ssdm_op_Read.ap_auto.volatile.i4P(i4* %in1)
  %tmp_19 = call i1 @_ssdm_op_BitSelect.i1.i4.i32(i4 %mux4bit_4to1_in1_m_if_Val_V_re_2, i32 2)
  %mux4bit_4to1_in2_m_if_Val_V_re_2 = call i4 @_ssdm_op_Read.ap_auto.volatile.i4P(i4* %in2)
  %tmp_20 = call i1 @_ssdm_op_BitSelect.i1.i4.i32(i4 %mux4bit_4to1_in2_m_if_Val_V_re_2, i32 2)
  %mux4bit_4to1_in3_m_if_Val_V_re_2 = call i4 @_ssdm_op_Read.ap_auto.volatile.i4P(i4* %in3)
  %tmp_21 = call i1 @_ssdm_op_BitSelect.i1.i4.i32(i4 %mux4bit_4to1_in3_m_if_Val_V_re_2, i32 2)
  %mux4bit_4to1_sel_m_if_Val_V_re_2 = call i2 @_ssdm_op_Read.ap_auto.volatile.i2P(i2* %sel)
  %sel_tmp10 = icmp eq i2 %mux4bit_4to1_sel_m_if_Val_V_re_2, -1
  %sel_tmp11 = and i1 %sel_tmp10, %tmp_21
  %sel_tmp12 = icmp eq i2 %mux4bit_4to1_sel_m_if_Val_V_re_2, -2
  %sel_tmp13 = icmp eq i2 %mux4bit_4to1_sel_m_if_Val_V_re_2, 1
  %sel_tmp14 = icmp eq i2 %mux4bit_4to1_sel_m_if_Val_V_re_2, 0
  %newSel6 = select i1 %sel_tmp14, i1 %tmp_18, i1 %tmp_19
  %or_cond2 = or i1 %sel_tmp14, %sel_tmp13
  %newSel7 = select i1 %sel_tmp12, i1 %tmp_20, i1 %sel_tmp11
  %newSel8 = select i1 %or_cond2, i1 %newSel6, i1 %newSel7
  %mux4bit_4to1_in0_m_if_Val_V_re_3 = call i4 @_ssdm_op_Read.ap_auto.volatile.i4P(i4* %in0)
  %tmp_22 = call i1 @_ssdm_op_BitSelect.i1.i4.i32(i4 %mux4bit_4to1_in0_m_if_Val_V_re_3, i32 3)
  %mux4bit_4to1_in1_m_if_Val_V_re_3 = call i4 @_ssdm_op_Read.ap_auto.volatile.i4P(i4* %in1)
  %tmp_23 = call i1 @_ssdm_op_BitSelect.i1.i4.i32(i4 %mux4bit_4to1_in1_m_if_Val_V_re_3, i32 3)
  %mux4bit_4to1_in2_m_if_Val_V_re_3 = call i4 @_ssdm_op_Read.ap_auto.volatile.i4P(i4* %in2)
  %tmp_24 = call i1 @_ssdm_op_BitSelect.i1.i4.i32(i4 %mux4bit_4to1_in2_m_if_Val_V_re_3, i32 3)
  %mux4bit_4to1_in3_m_if_Val_V_re_3 = call i4 @_ssdm_op_Read.ap_auto.volatile.i4P(i4* %in3)
  %tmp_25 = call i1 @_ssdm_op_BitSelect.i1.i4.i32(i4 %mux4bit_4to1_in3_m_if_Val_V_re_3, i32 3)
  %mux4bit_4to1_sel_m_if_Val_V_re_3 = call i2 @_ssdm_op_Read.ap_auto.volatile.i2P(i2* %sel)
  %sel_tmp15 = icmp eq i2 %mux4bit_4to1_sel_m_if_Val_V_re_3, -1
  %sel_tmp16 = and i1 %sel_tmp15, %tmp_25
  %sel_tmp17 = icmp eq i2 %mux4bit_4to1_sel_m_if_Val_V_re_3, -2
  %sel_tmp18 = icmp eq i2 %mux4bit_4to1_sel_m_if_Val_V_re_3, 1
  %sel_tmp19 = icmp eq i2 %mux4bit_4to1_sel_m_if_Val_V_re_3, 0
  %newSel9 = select i1 %sel_tmp19, i1 %tmp_22, i1 %tmp_23
  %or_cond3 = or i1 %sel_tmp19, %sel_tmp18
  %newSel = select i1 %sel_tmp17, i1 %tmp_24, i1 %sel_tmp16
  %newSel10 = select i1 %or_cond3, i1 %newSel9, i1 %newSel
  %p_Result_5_3 = call i4 @_ssdm_op_BitConcatenate.i4.i1.i1.i1.i1(i1 %newSel10, i1 %newSel8, i1 %newSel5, i1 %newSel2)
  call void @_ssdm_op_Write.ap_auto.volatile.i4P(i4* %out_r, i4 %p_Result_5_3)
  %empty = call i32 (...)* @_ssdm_op_SpecRegionEnd([10 x i8]* @p_str1427, i32 %tmp)
  ret void
}

declare void @llvm.dbg.value(metadata, i64, metadata) nounwind readnone

define weak void @_ssdm_op_Write.ap_auto.volatile.i4P(i4*, i4) {
entry:
  store i4 %1, i4* %0
  ret void
}

define weak void @_ssdm_op_Write.ap_auto.volatile.i1P(i1*, i1) {
entry:
  store i1 %1, i1* %0
  ret void
}

define weak void @_ssdm_op_SpecTopModule(...) nounwind {
entry:
  ret void
}

define weak void @_ssdm_op_SpecSensitive(...) nounwind {
entry:
  ret void
}

define weak i32 @_ssdm_op_SpecRegionEnd(...) {
entry:
  ret i32 0
}

define weak i32 @_ssdm_op_SpecRegionBegin(...) {
entry:
  ret i32 0
}

define weak void @_ssdm_op_SpecProtocol(...) nounwind {
entry:
  ret void
}

define weak void @_ssdm_op_SpecProcessDef(...) nounwind {
entry:
  ret void
}

define weak void @_ssdm_op_SpecProcessDecl(...) nounwind {
entry:
  ret void
}

define weak void @_ssdm_op_SpecPort(...) nounwind {
entry:
  ret void
}

define weak void @_ssdm_op_SpecBitsMap(...) {
entry:
  ret void
}

define weak i4 @_ssdm_op_Read.ap_auto.volatile.i4P(i4*) {
entry:
  %empty = load i4* %0
  ret i4 %empty
}

define weak i2 @_ssdm_op_Read.ap_auto.volatile.i2P(i2*) {
entry:
  %empty = load i2* %0
  ret i2 %empty
}

define weak i1 @_ssdm_op_Read.ap_auto.volatile.i1P(i1*) {
entry:
  %empty = load i1* %0
  ret i1 %empty
}

declare i1 @_ssdm_op_PartSelect.i1.i4.i32.i32(i4, i32, i32) nounwind readnone

declare i16 @_ssdm_op_HSub(...)

declare i16 @_ssdm_op_HMul(...)

declare i16 @_ssdm_op_HDiv(...)

declare i16 @_ssdm_op_HAdd(...)

define weak i1 @_ssdm_op_BitSelect.i1.i4.i32(i4, i32) nounwind readnone {
entry:
  %empty = trunc i32 %1 to i4
  %empty_2 = shl i4 1, %empty
  %empty_3 = and i4 %0, %empty_2
  %empty_4 = icmp ne i4 %empty_3, 0
  ret i1 %empty_4
}

define weak i4 @_ssdm_op_BitConcatenate.i4.i1.i1.i1.i1(i1, i1, i1, i1) nounwind readnone {
entry:
  %empty = zext i1 %2 to i2
  %empty_5 = zext i1 %3 to i2
  %empty_6 = shl i2 %empty, 1
  %empty_7 = or i2 %empty_6, %empty_5
  %empty_8 = zext i1 %1 to i3
  %empty_9 = zext i2 %empty_7 to i3
  %empty_10 = shl i3 %empty_8, 2
  %empty_11 = or i3 %empty_10, %empty_9
  %empty_12 = zext i1 %0 to i4
  %empty_13 = zext i3 %empty_11 to i4
  %empty_14 = shl i4 %empty_12, 3
  %empty_15 = or i4 %empty_14, %empty_13
  ret i4 %empty_15
}

declare void @_GLOBAL__I_a33() nounwind

declare void @_GLOBAL__I_a() nounwind

!hls.encrypted.func = !{}
!llvm.map.gv = !{!0, !7, !12, !17, !22, !27, !32, !37, !42, !47, !52, !57, !62, !67, !72, !77, !82, !87, !92, !97, !102}

!0 = metadata !{metadata !1, i2* @ssdm_ins_mux_4to1_1_0_sel_m_if}
!1 = metadata !{metadata !2}
!2 = metadata !{i32 0, i32 1, metadata !3}
!3 = metadata !{metadata !4}
!4 = metadata !{metadata !"ssdm_ins_mux_4to1_1_0.sel.m_if.Val.V", metadata !5, metadata !"uint2", i32 0, i32 1}
!5 = metadata !{metadata !6}
!6 = metadata !{i32 0, i32 0, i32 1}
!7 = metadata !{metadata !8, i1* @ssdm_ins_mux_4to1_1_0_out_m_if}
!8 = metadata !{metadata !9}
!9 = metadata !{i32 0, i32 0, metadata !10}
!10 = metadata !{metadata !11}
!11 = metadata !{metadata !"ssdm_ins_mux_4to1_1_0.out.m_if.Val", metadata !5, metadata !"bool", i32 0, i32 0}
!12 = metadata !{metadata !13, i1* @ssdm_ins_mux_4to1_1_0_in3_m_if}
!13 = metadata !{metadata !14}
!14 = metadata !{i32 0, i32 0, metadata !15}
!15 = metadata !{metadata !16}
!16 = metadata !{metadata !"ssdm_ins_mux_4to1_1_0.in3.m_if.Val", metadata !5, metadata !"bool", i32 0, i32 0}
!17 = metadata !{metadata !18, i1* @ssdm_ins_mux_4to1_1_0_in2_m_if}
!18 = metadata !{metadata !19}
!19 = metadata !{i32 0, i32 0, metadata !20}
!20 = metadata !{metadata !21}
!21 = metadata !{metadata !"ssdm_ins_mux_4to1_1_0.in2.m_if.Val", metadata !5, metadata !"bool", i32 0, i32 0}
!22 = metadata !{metadata !23, i1* @ssdm_ins_mux_4to1_1_0_in1_m_if}
!23 = metadata !{metadata !24}
!24 = metadata !{i32 0, i32 0, metadata !25}
!25 = metadata !{metadata !26}
!26 = metadata !{metadata !"ssdm_ins_mux_4to1_1_0.in1.m_if.Val", metadata !5, metadata !"bool", i32 0, i32 0}
!27 = metadata !{metadata !28, i1* @ssdm_ins_mux_4to1_1_0_in0_m_if}
!28 = metadata !{metadata !29}
!29 = metadata !{i32 0, i32 0, metadata !30}
!30 = metadata !{metadata !31}
!31 = metadata !{metadata !"ssdm_ins_mux_4to1_1_0.in0.m_if.Val", metadata !5, metadata !"bool", i32 0, i32 0}
!32 = metadata !{metadata !33, i2* @ssdm_ins_mux_4to1_0_0_sel_m_if}
!33 = metadata !{metadata !34}
!34 = metadata !{i32 0, i32 1, metadata !35}
!35 = metadata !{metadata !36}
!36 = metadata !{metadata !"ssdm_ins_mux_4to1_0_0.sel.m_if.Val.V", metadata !5, metadata !"uint2", i32 0, i32 1}
!37 = metadata !{metadata !38, i1* @ssdm_ins_mux_4to1_0_0_out_m_if}
!38 = metadata !{metadata !39}
!39 = metadata !{i32 0, i32 0, metadata !40}
!40 = metadata !{metadata !41}
!41 = metadata !{metadata !"ssdm_ins_mux_4to1_0_0.out.m_if.Val", metadata !5, metadata !"bool", i32 0, i32 0}
!42 = metadata !{metadata !43, i1* @ssdm_ins_mux_4to1_0_0_in3_m_if}
!43 = metadata !{metadata !44}
!44 = metadata !{i32 0, i32 0, metadata !45}
!45 = metadata !{metadata !46}
!46 = metadata !{metadata !"ssdm_ins_mux_4to1_0_0.in3.m_if.Val", metadata !5, metadata !"bool", i32 0, i32 0}
!47 = metadata !{metadata !48, i1* @ssdm_ins_mux_4to1_0_0_in2_m_if}
!48 = metadata !{metadata !49}
!49 = metadata !{i32 0, i32 0, metadata !50}
!50 = metadata !{metadata !51}
!51 = metadata !{metadata !"ssdm_ins_mux_4to1_0_0.in2.m_if.Val", metadata !5, metadata !"bool", i32 0, i32 0}
!52 = metadata !{metadata !53, i1* @ssdm_ins_mux_4to1_0_0_in1_m_if}
!53 = metadata !{metadata !54}
!54 = metadata !{i32 0, i32 0, metadata !55}
!55 = metadata !{metadata !56}
!56 = metadata !{metadata !"ssdm_ins_mux_4to1_0_0.in1.m_if.Val", metadata !5, metadata !"bool", i32 0, i32 0}
!57 = metadata !{metadata !58, i1* @ssdm_ins_mux_4to1_0_0_in0_m_if}
!58 = metadata !{metadata !59}
!59 = metadata !{i32 0, i32 0, metadata !60}
!60 = metadata !{metadata !61}
!61 = metadata !{metadata !"ssdm_ins_mux_4to1_0_0.in0.m_if.Val", metadata !5, metadata !"bool", i32 0, i32 0}
!62 = metadata !{metadata !63, i2* @ssdm_ins_mux4bit_4to1_1_0_sel_s}
!63 = metadata !{metadata !64}
!64 = metadata !{i32 0, i32 1, metadata !65}
!65 = metadata !{metadata !66}
!66 = metadata !{metadata !"ssdm_ins_mux4bit_4to1_1_0.sel.m_if.Val.V", metadata !5, metadata !"uint2", i32 0, i32 1}
!67 = metadata !{metadata !68, i4* @ssdm_ins_mux4bit_4to1_1_0_out_s}
!68 = metadata !{metadata !69}
!69 = metadata !{i32 0, i32 3, metadata !70}
!70 = metadata !{metadata !71}
!71 = metadata !{metadata !"ssdm_ins_mux4bit_4to1_1_0.out.m_if.Val.V", metadata !5, metadata !"uint4", i32 0, i32 3}
!72 = metadata !{metadata !73, i4* @ssdm_ins_mux4bit_4to1_1_0_in3_s}
!73 = metadata !{metadata !74}
!74 = metadata !{i32 0, i32 3, metadata !75}
!75 = metadata !{metadata !76}
!76 = metadata !{metadata !"ssdm_ins_mux4bit_4to1_1_0.in3.m_if.Val.V", metadata !5, metadata !"uint4", i32 0, i32 3}
!77 = metadata !{metadata !78, i4* @ssdm_ins_mux4bit_4to1_1_0_in2_s}
!78 = metadata !{metadata !79}
!79 = metadata !{i32 0, i32 3, metadata !80}
!80 = metadata !{metadata !81}
!81 = metadata !{metadata !"ssdm_ins_mux4bit_4to1_1_0.in2.m_if.Val.V", metadata !5, metadata !"uint4", i32 0, i32 3}
!82 = metadata !{metadata !83, i4* @ssdm_ins_mux4bit_4to1_1_0_in1_s}
!83 = metadata !{metadata !84}
!84 = metadata !{i32 0, i32 3, metadata !85}
!85 = metadata !{metadata !86}
!86 = metadata !{metadata !"ssdm_ins_mux4bit_4to1_1_0.in1.m_if.Val.V", metadata !5, metadata !"uint4", i32 0, i32 3}
!87 = metadata !{metadata !88, i4* @ssdm_ins_mux4bit_4to1_1_0_in0_s}
!88 = metadata !{metadata !89}
!89 = metadata !{i32 0, i32 3, metadata !90}
!90 = metadata !{metadata !91}
!91 = metadata !{metadata !"ssdm_ins_mux4bit_4to1_1_0.in0.m_if.Val.V", metadata !5, metadata !"uint4", i32 0, i32 3}
!92 = metadata !{metadata !93, i1* @mux_4to1_ssdm_thread_M_process_mux}
!93 = metadata !{metadata !94}
!94 = metadata !{i32 0, i32 0, metadata !95}
!95 = metadata !{metadata !96}
!96 = metadata !{metadata !"mux_4to1::__ssdm_thread_M_process_mux", metadata !5, metadata !"bool", i32 0, i32 0}
!97 = metadata !{metadata !98, i1* @mux4bit_4to1_ssdm_thread_M_do_mux}
!98 = metadata !{metadata !99}
!99 = metadata !{i32 0, i32 0, metadata !100}
!100 = metadata !{metadata !101}
!101 = metadata !{metadata !"mux4bit_4to1::__ssdm_thread_M_do_mux", metadata !5, metadata !"bool", i32 0, i32 0}
!102 = metadata !{metadata !103, [2 x i32]* @llvm_global_ctors_0}
!103 = metadata !{metadata !104}
!104 = metadata !{i32 0, i32 31, metadata !105}
!105 = metadata !{metadata !106}
!106 = metadata !{metadata !"llvm.global_ctors.0", metadata !107, metadata !"", i32 0, i32 31}
!107 = metadata !{metadata !108}
!108 = metadata !{i32 0, i32 1, i32 1}
!109 = metadata !{metadata !110}
!110 = metadata !{i32 0, i32 0, metadata !111}
!111 = metadata !{metadata !112}
!112 = metadata !{metadata !"mux_4to1.in0.m_if.Val", metadata !5, metadata !"bool", i32 0, i32 0}
!113 = metadata !{metadata !114}
!114 = metadata !{i32 0, i32 0, metadata !115}
!115 = metadata !{metadata !116}
!116 = metadata !{metadata !"mux_4to1.in1.m_if.Val", metadata !5, metadata !"bool", i32 0, i32 0}
!117 = metadata !{metadata !118}
!118 = metadata !{i32 0, i32 0, metadata !119}
!119 = metadata !{metadata !120}
!120 = metadata !{metadata !"mux_4to1.in2.m_if.Val", metadata !5, metadata !"bool", i32 0, i32 0}
!121 = metadata !{metadata !122}
!122 = metadata !{i32 0, i32 0, metadata !123}
!123 = metadata !{metadata !124}
!124 = metadata !{metadata !"mux_4to1.in3.m_if.Val", metadata !5, metadata !"bool", i32 0, i32 0}
!125 = metadata !{metadata !126}
!126 = metadata !{i32 0, i32 1, metadata !127}
!127 = metadata !{metadata !128}
!128 = metadata !{metadata !"mux_4to1.sel.m_if.Val.V", metadata !5, metadata !"uint2", i32 0, i32 1}
!129 = metadata !{metadata !130}
!130 = metadata !{i32 0, i32 0, metadata !131}
!131 = metadata !{metadata !132}
!132 = metadata !{metadata !"mux_4to1.out.m_if.Val", metadata !5, metadata !"bool", i32 0, i32 0}
!133 = metadata !{i32 790531, metadata !134, metadata !"mux_4to1.in0.m_if.Val", null, i32 8, metadata !846, i32 0, i32 0} ; [ DW_TAG_arg_variable_field ]
!134 = metadata !{i32 786689, metadata !135, metadata !"this", metadata !136, i32 16777224, metadata !845, i32 64, i32 0} ; [ DW_TAG_arg_variable ]
!135 = metadata !{i32 786478, i32 0, null, metadata !"process_mux", metadata !"process_mux", metadata !"_ZN8mux_4to111process_muxEv", metadata !136, i32 8, metadata !137, i1 false, i1 true, i32 0, i32 0, null, i32 256, i1 false, null, null, metadata !827, metadata !158, i32 9} ; [ DW_TAG_subprogram ]
!136 = metadata !{i32 786473, metadata !"../../../mux_4to1/mux_4to1.cpp", metadata !"c:/HOC_TAP/System_C/Final_report/A_Design_problem/3.4_bit_multiplexor_4to1", null} ; [ DW_TAG_file_type ]
!137 = metadata !{i32 786453, i32 0, metadata !"", i32 0, i32 0, i64 0, i64 0, i64 0, i32 0, null, metadata !138, i32 0, i32 0} ; [ DW_TAG_subroutine_type ]
!138 = metadata !{null, metadata !139}
!139 = metadata !{i32 786447, i32 0, metadata !"", i32 0, i32 0, i64 64, i64 64, i64 0, i32 64, metadata !140} ; [ DW_TAG_pointer_type ]
!140 = metadata !{i32 786434, null, metadata !"mux_4to1", metadata !136, i32 3, i64 48, i64 8, i32 0, i32 0, null, metadata !141, i32 0, null, null} ; [ DW_TAG_class_type ]
!141 = metadata !{metadata !142, metadata !258, metadata !259, metadata !260, metadata !261, metadata !743, metadata !827, metadata !828}
!142 = metadata !{i32 786445, metadata !140, metadata !"in0", metadata !136, i32 5, i64 8, i64 8, i64 0, i32 0, metadata !143} ; [ DW_TAG_member ]
!143 = metadata !{i32 786434, metadata !144, metadata !"sc_in<bool>", metadata !146, i32 370, i64 8, i64 8, i32 0, i32 0, null, metadata !147, i32 0, null, metadata !192} ; [ DW_TAG_class_type ]
!144 = metadata !{i32 786489, metadata !145, metadata !"sc_core", metadata !146, i32 163} ; [ DW_TAG_namespace ]
!145 = metadata !{i32 786489, null, metadata !"_ap_sc_", metadata !146, i32 160} ; [ DW_TAG_namespace ]
!146 = metadata !{i32 786473, metadata !"C:/Xilinx/Vivado_HLS/2015.4/common/technology/autopilot/ap_sysc/ap_sc_core.h", metadata !"c:/HOC_TAP/System_C/Final_report/A_Design_problem/3.4_bit_multiplexor_4to1", null} ; [ DW_TAG_file_type ]
!147 = metadata !{metadata !148, metadata !227, metadata !232, metadata !233, metadata !237, metadata !240, metadata !243, metadata !246}
!148 = metadata !{i32 786460, metadata !143, null, metadata !146, i32 0, i64 0, i64 0, i64 0, i32 0, metadata !149} ; [ DW_TAG_inheritance ]
!149 = metadata !{i32 786434, metadata !144, metadata !"sc_port_b<_ap_sc_::sc_core::sc_signal_in_if<bool> >", metadata !146, i32 281, i64 8, i64 8, i32 0, i32 0, null, metadata !150, i32 0, null, metadata !225} ; [ DW_TAG_class_type ]
!150 = metadata !{metadata !151, metadata !160, metadata !194, metadata !198, metadata !204, metadata !208, metadata !209, metadata !215, metadata !216, metadata !220, metadata !221}
!151 = metadata !{i32 786460, metadata !149, null, metadata !146, i32 0, i64 0, i64 0, i64 0, i32 0, metadata !152} ; [ DW_TAG_inheritance ]
!152 = metadata !{i32 786434, metadata !144, metadata !"sc_port_base", metadata !146, i32 278, i64 8, i64 8, i32 0, i32 0, null, metadata !153, i32 0, null, null} ; [ DW_TAG_class_type ]
!153 = metadata !{metadata !154}
!154 = metadata !{i32 786478, i32 0, metadata !152, metadata !"sc_port_base", metadata !"sc_port_base", metadata !"", metadata !146, i32 278, metadata !155, i1 false, i1 false, i32 0, i32 0, null, i32 256, i1 false, null, null, i32 0, metadata !158, i32 278} ; [ DW_TAG_subprogram ]
!155 = metadata !{i32 786453, i32 0, metadata !"", i32 0, i32 0, i64 0, i64 0, i64 0, i32 0, null, metadata !156, i32 0, i32 0} ; [ DW_TAG_subroutine_type ]
!156 = metadata !{null, metadata !157}
!157 = metadata !{i32 786447, i32 0, metadata !"", i32 0, i32 0, i64 64, i64 64, i64 0, i32 64, metadata !152} ; [ DW_TAG_pointer_type ]
!158 = metadata !{metadata !159}
!159 = metadata !{i32 786468}                     ; [ DW_TAG_base_type ]
!160 = metadata !{i32 786445, metadata !149, metadata !"m_if", metadata !146, i32 283, i64 8, i64 8, i64 0, i32 0, metadata !161} ; [ DW_TAG_member ]
!161 = metadata !{i32 786434, metadata !144, metadata !"sc_signal_in_if<bool>", metadata !146, i32 172, i64 8, i64 8, i32 0, i32 0, null, metadata !162, i32 0, null, metadata !192} ; [ DW_TAG_class_type ]
!162 = metadata !{metadata !163, metadata !170, metadata !173, metadata !177, metadata !180, metadata !185, metadata !189}
!163 = metadata !{i32 786460, metadata !161, null, metadata !146, i32 0, i64 0, i64 0, i64 0, i32 0, metadata !164} ; [ DW_TAG_inheritance ]
!164 = metadata !{i32 786434, metadata !144, metadata !"sc_interface", metadata !146, i32 165, i64 8, i64 8, i32 0, i32 0, null, metadata !165, i32 0, null, null} ; [ DW_TAG_class_type ]
!165 = metadata !{metadata !166}
!166 = metadata !{i32 786478, i32 0, metadata !164, metadata !"sc_interface", metadata !"sc_interface", metadata !"", metadata !146, i32 165, metadata !167, i1 false, i1 false, i32 0, i32 0, null, i32 256, i1 false, null, null, i32 0, metadata !158, i32 165} ; [ DW_TAG_subprogram ]
!167 = metadata !{i32 786453, i32 0, metadata !"", i32 0, i32 0, i64 0, i64 0, i64 0, i32 0, null, metadata !168, i32 0, i32 0} ; [ DW_TAG_subroutine_type ]
!168 = metadata !{null, metadata !169}
!169 = metadata !{i32 786447, i32 0, metadata !"", i32 0, i32 0, i64 64, i64 64, i64 0, i32 64, metadata !164} ; [ DW_TAG_pointer_type ]
!170 = metadata !{i32 786445, metadata !161, metadata !"Val", metadata !146, i32 174, i64 8, i64 8, i64 0, i32 0, metadata !171} ; [ DW_TAG_member ]
!171 = metadata !{i32 786485, null, metadata !"", null, i32 0, i64 0, i64 0, i64 0, i32 0, metadata !172} ; [ DW_TAG_volatile_type ]
!172 = metadata !{i32 786468, null, metadata !"bool", null, i32 0, i64 8, i64 8, i64 0, i32 0, i32 2} ; [ DW_TAG_base_type ]
!173 = metadata !{i32 786478, i32 0, metadata !161, metadata !"sc_signal_in_if", metadata !"sc_signal_in_if", metadata !"", metadata !146, i32 176, metadata !174, i1 false, i1 false, i32 0, i32 0, null, i32 256, i1 false, null, null, i32 0, metadata !158, i32 176} ; [ DW_TAG_subprogram ]
!174 = metadata !{i32 786453, i32 0, metadata !"", i32 0, i32 0, i64 0, i64 0, i64 0, i32 0, null, metadata !175, i32 0, i32 0} ; [ DW_TAG_subroutine_type ]
!175 = metadata !{null, metadata !176}
!176 = metadata !{i32 786447, i32 0, metadata !"", i32 0, i32 0, i64 64, i64 64, i64 0, i32 64, metadata !161} ; [ DW_TAG_pointer_type ]
!177 = metadata !{i32 786478, i32 0, metadata !161, metadata !"read", metadata !"read", metadata !"_ZN7_ap_sc_7sc_core15sc_signal_in_ifIbE4readEv", metadata !146, i32 180, metadata !178, i1 false, i1 false, i32 0, i32 0, null, i32 256, i1 false, null, null, i32 0, metadata !158, i32 180} ; [ DW_TAG_subprogram ]
!178 = metadata !{i32 786453, i32 0, metadata !"", i32 0, i32 0, i64 0, i64 0, i64 0, i32 0, null, metadata !179, i32 0, i32 0} ; [ DW_TAG_subroutine_type ]
!179 = metadata !{metadata !172, metadata !176}
!180 = metadata !{i32 786478, i32 0, metadata !161, metadata !"read", metadata !"read", metadata !"_ZNK7_ap_sc_7sc_core15sc_signal_in_ifIbE4readEv", metadata !146, i32 181, metadata !181, i1 false, i1 false, i32 0, i32 0, null, i32 256, i1 false, null, null, i32 0, metadata !158, i32 181} ; [ DW_TAG_subprogram ]
!181 = metadata !{i32 786453, i32 0, metadata !"", i32 0, i32 0, i64 0, i64 0, i64 0, i32 0, null, metadata !182, i32 0, i32 0} ; [ DW_TAG_subroutine_type ]
!182 = metadata !{metadata !172, metadata !183}
!183 = metadata !{i32 786447, i32 0, metadata !"", i32 0, i32 0, i64 64, i64 64, i64 0, i32 64, metadata !184} ; [ DW_TAG_pointer_type ]
!184 = metadata !{i32 786470, null, metadata !"", null, i32 0, i64 0, i64 0, i64 0, i32 0, metadata !161} ; [ DW_TAG_const_type ]
!185 = metadata !{i32 786478, i32 0, metadata !161, metadata !"operator const _Bool", metadata !"operator const _Bool", metadata !"_ZN7_ap_sc_7sc_core15sc_signal_in_ifIbEcvKbEv", metadata !146, i32 187, metadata !186, i1 false, i1 false, i32 0, i32 0, null, i32 256, i1 false, null, null, i32 0, metadata !158, i32 187} ; [ DW_TAG_subprogram ]
!186 = metadata !{i32 786453, i32 0, metadata !"", i32 0, i32 0, i64 0, i64 0, i64 0, i32 0, null, metadata !187, i32 0, i32 0} ; [ DW_TAG_subroutine_type ]
!187 = metadata !{metadata !188, metadata !176}
!188 = metadata !{i32 786470, null, metadata !"", null, i32 0, i64 0, i64 0, i64 0, i32 0, metadata !172} ; [ DW_TAG_const_type ]
!189 = metadata !{i32 786478, i32 0, metadata !161, metadata !"operator const _Bool", metadata !"operator const _Bool", metadata !"_ZNK7_ap_sc_7sc_core15sc_signal_in_ifIbEcvKbEv", metadata !146, i32 188, metadata !190, i1 false, i1 false, i32 0, i32 0, null, i32 256, i1 false, null, null, i32 0, metadata !158, i32 188} ; [ DW_TAG_subprogram ]
!190 = metadata !{i32 786453, i32 0, metadata !"", i32 0, i32 0, i64 0, i64 0, i64 0, i32 0, null, metadata !191, i32 0, i32 0} ; [ DW_TAG_subroutine_type ]
!191 = metadata !{metadata !188, metadata !183}
!192 = metadata !{metadata !193}
!193 = metadata !{i32 786479, null, metadata !"T", metadata !172, null, i32 0, i32 0} ; [ DW_TAG_template_type_parameter ]
!194 = metadata !{i32 786478, i32 0, metadata !149, metadata !"sc_port_b", metadata !"sc_port_b", metadata !"", metadata !146, i32 285, metadata !195, i1 false, i1 false, i32 0, i32 0, null, i32 256, i1 false, null, null, i32 0, metadata !158, i32 285} ; [ DW_TAG_subprogram ]
!195 = metadata !{i32 786453, i32 0, metadata !"", i32 0, i32 0, i64 0, i64 0, i64 0, i32 0, null, metadata !196, i32 0, i32 0} ; [ DW_TAG_subroutine_type ]
!196 = metadata !{null, metadata !197}
!197 = metadata !{i32 786447, i32 0, metadata !"", i32 0, i32 0, i64 64, i64 64, i64 0, i32 64, metadata !149} ; [ DW_TAG_pointer_type ]
!198 = metadata !{i32 786478, i32 0, metadata !149, metadata !"sc_port_b", metadata !"sc_port_b", metadata !"", metadata !146, i32 286, metadata !199, i1 false, i1 false, i32 0, i32 0, null, i32 384, i1 false, null, null, i32 0, metadata !158, i32 286} ; [ DW_TAG_subprogram ]
!199 = metadata !{i32 786453, i32 0, metadata !"", i32 0, i32 0, i64 0, i64 0, i64 0, i32 0, null, metadata !200, i32 0, i32 0} ; [ DW_TAG_subroutine_type ]
!200 = metadata !{null, metadata !197, metadata !201}
!201 = metadata !{i32 786447, null, metadata !"", null, i32 0, i64 64, i64 64, i64 0, i32 0, metadata !202} ; [ DW_TAG_pointer_type ]
!202 = metadata !{i32 786470, null, metadata !"", null, i32 0, i64 0, i64 0, i64 0, i32 0, metadata !203} ; [ DW_TAG_const_type ]
!203 = metadata !{i32 786468, null, metadata !"char", null, i32 0, i64 8, i64 8, i64 0, i32 0, i32 6} ; [ DW_TAG_base_type ]
!204 = metadata !{i32 786478, i32 0, metadata !149, metadata !"bind", metadata !"bind", metadata !"_ZN7_ap_sc_7sc_core9sc_port_bINS0_15sc_signal_in_ifIbEEE4bindERS3_", metadata !146, i32 290, metadata !205, i1 false, i1 false, i32 0, i32 0, null, i32 256, i1 false, null, null, i32 0, metadata !158, i32 290} ; [ DW_TAG_subprogram ]
!205 = metadata !{i32 786453, i32 0, metadata !"", i32 0, i32 0, i64 0, i64 0, i64 0, i32 0, null, metadata !206, i32 0, i32 0} ; [ DW_TAG_subroutine_type ]
!206 = metadata !{null, metadata !197, metadata !207}
!207 = metadata !{i32 786448, null, null, null, i32 0, i64 0, i64 0, i64 0, i32 0, metadata !161} ; [ DW_TAG_reference_type ]
!208 = metadata !{i32 786478, i32 0, metadata !149, metadata !"operator()", metadata !"operator()", metadata !"_ZN7_ap_sc_7sc_core9sc_port_bINS0_15sc_signal_in_ifIbEEEclERS3_", metadata !146, i32 293, metadata !205, i1 false, i1 false, i32 0, i32 0, null, i32 256, i1 false, null, null, i32 0, metadata !158, i32 293} ; [ DW_TAG_subprogram ]
!209 = metadata !{i32 786478, i32 0, metadata !149, metadata !"bind", metadata !"bind", metadata !"_ZN7_ap_sc_7sc_core9sc_port_bINS0_15sc_signal_in_ifIbEEE4bindERNS0_15sc_prim_channelE", metadata !146, i32 294, metadata !210, i1 false, i1 false, i32 0, i32 0, null, i32 256, i1 false, null, null, i32 0, metadata !158, i32 294} ; [ DW_TAG_subprogram ]
!210 = metadata !{i32 786453, i32 0, metadata !"", i32 0, i32 0, i64 0, i64 0, i64 0, i32 0, null, metadata !211, i32 0, i32 0} ; [ DW_TAG_subroutine_type ]
!211 = metadata !{null, metadata !197, metadata !212}
!212 = metadata !{i32 786448, null, null, null, i32 0, i64 0, i64 0, i64 0, i32 0, metadata !213} ; [ DW_TAG_reference_type ]
!213 = metadata !{i32 786434, metadata !144, metadata !"sc_prim_channel", metadata !146, i32 166, i64 8, i64 8, i32 0, i32 0, null, metadata !214, i32 0, null, null} ; [ DW_TAG_class_type ]
!214 = metadata !{i32 0}
!215 = metadata !{i32 786478, i32 0, metadata !149, metadata !"operator()", metadata !"operator()", metadata !"_ZN7_ap_sc_7sc_core9sc_port_bINS0_15sc_signal_in_ifIbEEEclERNS0_15sc_prim_channelE", metadata !146, i32 297, metadata !210, i1 false, i1 false, i32 0, i32 0, null, i32 256, i1 false, null, null, i32 0, metadata !158, i32 297} ; [ DW_TAG_subprogram ]
!216 = metadata !{i32 786478, i32 0, metadata !149, metadata !"bind", metadata !"bind", metadata !"_ZN7_ap_sc_7sc_core9sc_port_bINS0_15sc_signal_in_ifIbEEE4bindERS4_", metadata !146, i32 298, metadata !217, i1 false, i1 false, i32 0, i32 0, null, i32 256, i1 false, null, null, i32 0, metadata !158, i32 298} ; [ DW_TAG_subprogram ]
!217 = metadata !{i32 786453, i32 0, metadata !"", i32 0, i32 0, i64 0, i64 0, i64 0, i32 0, null, metadata !218, i32 0, i32 0} ; [ DW_TAG_subroutine_type ]
!218 = metadata !{null, metadata !197, metadata !219}
!219 = metadata !{i32 786448, null, null, null, i32 0, i64 0, i64 0, i64 0, i32 0, metadata !149} ; [ DW_TAG_reference_type ]
!220 = metadata !{i32 786478, i32 0, metadata !149, metadata !"operator()", metadata !"operator()", metadata !"_ZN7_ap_sc_7sc_core9sc_port_bINS0_15sc_signal_in_ifIbEEEclERS4_", metadata !146, i32 299, metadata !217, i1 false, i1 false, i32 0, i32 0, null, i32 256, i1 false, null, null, i32 0, metadata !158, i32 299} ; [ DW_TAG_subprogram ]
!221 = metadata !{i32 786478, i32 0, metadata !149, metadata !"operator->", metadata !"operator->", metadata !"_ZN7_ap_sc_7sc_core9sc_port_bINS0_15sc_signal_in_ifIbEEEptEv", metadata !146, i32 301, metadata !222, i1 false, i1 false, i32 0, i32 0, null, i32 256, i1 false, null, null, i32 0, metadata !158, i32 301} ; [ DW_TAG_subprogram ]
!222 = metadata !{i32 786453, i32 0, metadata !"", i32 0, i32 0, i64 0, i64 0, i64 0, i32 0, null, metadata !223, i32 0, i32 0} ; [ DW_TAG_subroutine_type ]
!223 = metadata !{metadata !224, metadata !197}
!224 = metadata !{i32 786447, null, metadata !"", null, i32 0, i64 64, i64 64, i64 0, i32 0, metadata !161} ; [ DW_TAG_pointer_type ]
!225 = metadata !{metadata !226}
!226 = metadata !{i32 786479, null, metadata !"IF", metadata !161, null, i32 0, i32 0} ; [ DW_TAG_template_type_parameter ]
!227 = metadata !{i32 786478, i32 0, metadata !143, metadata !"pos", metadata !"pos", metadata !"_ZNK7_ap_sc_7sc_core5sc_inIbE3posEv", metadata !146, i32 375, metadata !228, i1 false, i1 false, i32 0, i32 0, null, i32 256, i1 false, null, null, i32 0, metadata !158, i32 375} ; [ DW_TAG_subprogram ]
!228 = metadata !{i32 786453, i32 0, metadata !"", i32 0, i32 0, i64 0, i64 0, i64 0, i32 0, null, metadata !229, i32 0, i32 0} ; [ DW_TAG_subroutine_type ]
!229 = metadata !{null, metadata !230}
!230 = metadata !{i32 786447, i32 0, metadata !"", i32 0, i32 0, i64 64, i64 64, i64 0, i32 64, metadata !231} ; [ DW_TAG_pointer_type ]
!231 = metadata !{i32 786470, null, metadata !"", null, i32 0, i64 0, i64 0, i64 0, i32 0, metadata !143} ; [ DW_TAG_const_type ]
!232 = metadata !{i32 786478, i32 0, metadata !143, metadata !"neg", metadata !"neg", metadata !"_ZNK7_ap_sc_7sc_core5sc_inIbE3negEv", metadata !146, i32 376, metadata !228, i1 false, i1 false, i32 0, i32 0, null, i32 256, i1 false, null, null, i32 0, metadata !158, i32 376} ; [ DW_TAG_subprogram ]
!233 = metadata !{i32 786478, i32 0, metadata !143, metadata !"sc_in", metadata !"sc_in", metadata !"", metadata !146, i32 378, metadata !234, i1 false, i1 false, i32 0, i32 0, null, i32 256, i1 false, null, null, i32 0, metadata !158, i32 378} ; [ DW_TAG_subprogram ]
!234 = metadata !{i32 786453, i32 0, metadata !"", i32 0, i32 0, i64 0, i64 0, i64 0, i32 0, null, metadata !235, i32 0, i32 0} ; [ DW_TAG_subroutine_type ]
!235 = metadata !{null, metadata !236}
!236 = metadata !{i32 786447, i32 0, metadata !"", i32 0, i32 0, i64 64, i64 64, i64 0, i32 64, metadata !143} ; [ DW_TAG_pointer_type ]
!237 = metadata !{i32 786478, i32 0, metadata !143, metadata !"sc_in", metadata !"sc_in", metadata !"", metadata !146, i32 379, metadata !238, i1 false, i1 false, i32 0, i32 0, null, i32 384, i1 false, null, null, i32 0, metadata !158, i32 379} ; [ DW_TAG_subprogram ]
!238 = metadata !{i32 786453, i32 0, metadata !"", i32 0, i32 0, i64 0, i64 0, i64 0, i32 0, null, metadata !239, i32 0, i32 0} ; [ DW_TAG_subroutine_type ]
!239 = metadata !{null, metadata !236, metadata !201}
!240 = metadata !{i32 786478, i32 0, metadata !143, metadata !"read", metadata !"read", metadata !"_ZN7_ap_sc_7sc_core5sc_inIbE4readEv", metadata !146, i32 382, metadata !241, i1 false, i1 false, i32 0, i32 0, null, i32 256, i1 false, null, null, i32 0, metadata !158, i32 382} ; [ DW_TAG_subprogram ]
!241 = metadata !{i32 786453, i32 0, metadata !"", i32 0, i32 0, i64 0, i64 0, i64 0, i32 0, null, metadata !242, i32 0, i32 0} ; [ DW_TAG_subroutine_type ]
!242 = metadata !{metadata !172, metadata !236}
!243 = metadata !{i32 786478, i32 0, metadata !143, metadata !"operator const _Bool", metadata !"operator const _Bool", metadata !"_ZN7_ap_sc_7sc_core5sc_inIbEcvKbEv", metadata !146, i32 383, metadata !244, i1 false, i1 false, i32 0, i32 0, null, i32 256, i1 false, null, null, i32 0, metadata !158, i32 383} ; [ DW_TAG_subprogram ]
!244 = metadata !{i32 786453, i32 0, metadata !"", i32 0, i32 0, i64 0, i64 0, i64 0, i32 0, null, metadata !245, i32 0, i32 0} ; [ DW_TAG_subroutine_type ]
!245 = metadata !{metadata !188, metadata !236}
!246 = metadata !{i32 786478, i32 0, metadata !143, metadata !"delayed", metadata !"delayed", metadata !"_ZNK7_ap_sc_7sc_core5sc_inIbE7delayedEv", metadata !146, i32 386, metadata !247, i1 false, i1 false, i32 0, i32 0, null, i32 256, i1 false, null, null, i32 0, metadata !158, i32 386} ; [ DW_TAG_subprogram ]
!247 = metadata !{i32 786453, i32 0, metadata !"", i32 0, i32 0, i64 0, i64 0, i64 0, i32 0, null, metadata !248, i32 0, i32 0} ; [ DW_TAG_subroutine_type ]
!248 = metadata !{metadata !249, metadata !230}
!249 = metadata !{i32 786448, null, null, null, i32 0, i64 0, i64 0, i64 0, i32 0, metadata !250} ; [ DW_TAG_reference_type ]
!250 = metadata !{i32 786470, null, metadata !"", null, i32 0, i64 0, i64 0, i64 0, i32 0, metadata !251} ; [ DW_TAG_const_type ]
!251 = metadata !{i32 786434, metadata !144, metadata !"sc_signal_bool_deval", metadata !146, i32 268, i64 8, i64 8, i32 0, i32 0, null, metadata !252, i32 0, null, null} ; [ DW_TAG_class_type ]
!252 = metadata !{metadata !253}
!253 = metadata !{i32 786478, i32 0, metadata !251, metadata !"operator==", metadata !"operator==", metadata !"_ZNK7_ap_sc_7sc_core20sc_signal_bool_devaleqEb", metadata !146, i32 270, metadata !254, i1 false, i1 false, i32 0, i32 0, null, i32 256, i1 false, null, null, i32 0, metadata !158, i32 270} ; [ DW_TAG_subprogram ]
!254 = metadata !{i32 786453, i32 0, metadata !"", i32 0, i32 0, i64 0, i64 0, i64 0, i32 0, null, metadata !255, i32 0, i32 0} ; [ DW_TAG_subroutine_type ]
!255 = metadata !{metadata !256, metadata !257, metadata !172}
!256 = metadata !{i32 786448, null, null, null, i32 0, i64 0, i64 0, i64 0, i32 0, metadata !251} ; [ DW_TAG_reference_type ]
!257 = metadata !{i32 786447, i32 0, metadata !"", i32 0, i32 0, i64 64, i64 64, i64 0, i32 64, metadata !250} ; [ DW_TAG_pointer_type ]
!258 = metadata !{i32 786445, metadata !140, metadata !"in1", metadata !136, i32 5, i64 8, i64 8, i64 8, i32 0, metadata !143} ; [ DW_TAG_member ]
!259 = metadata !{i32 786445, metadata !140, metadata !"in2", metadata !136, i32 5, i64 8, i64 8, i64 16, i32 0, metadata !143} ; [ DW_TAG_member ]
!260 = metadata !{i32 786445, metadata !140, metadata !"in3", metadata !136, i32 5, i64 8, i64 8, i64 24, i32 0, metadata !143} ; [ DW_TAG_member ]
!261 = metadata !{i32 786445, metadata !140, metadata !"sel", metadata !136, i32 6, i64 8, i64 8, i64 32, i32 0, metadata !262} ; [ DW_TAG_member ]
!262 = metadata !{i32 786434, metadata !144, metadata !"sc_in<_ap_sc_::sc_dt::sc_uint<2> >", metadata !146, i32 342, i64 8, i64 8, i32 0, i32 0, null, metadata !263, i32 0, null, metadata !690} ; [ DW_TAG_class_type ]
!263 = metadata !{metadata !264, metadata !719, metadata !723, metadata !726, metadata !730, metadata !736, metadata !740}
!264 = metadata !{i32 786460, metadata !262, null, metadata !146, i32 0, i64 0, i64 0, i64 0, i32 0, metadata !265} ; [ DW_TAG_inheritance ]
!265 = metadata !{i32 786434, metadata !144, metadata !"sc_port_b<_ap_sc_::sc_core::sc_signal_in_if<_ap_sc_::sc_dt::sc_uint<2> > >", metadata !146, i32 281, i64 8, i64 8, i32 0, i32 0, null, metadata !266, i32 0, null, metadata !717} ; [ DW_TAG_class_type ]
!266 = metadata !{metadata !267, metadata !268, metadata !692, metadata !696, metadata !699, metadata !703, metadata !704, metadata !707, metadata !708, metadata !712, metadata !713}
!267 = metadata !{i32 786460, metadata !265, null, metadata !146, i32 0, i64 0, i64 0, i64 0, i32 0, metadata !152} ; [ DW_TAG_inheritance ]
!268 = metadata !{i32 786445, metadata !265, metadata !"m_if", metadata !146, i32 283, i64 8, i64 8, i64 0, i32 0, metadata !269} ; [ DW_TAG_member ]
!269 = metadata !{i32 786434, metadata !144, metadata !"sc_signal_in_if<_ap_sc_::sc_dt::sc_uint<2> >", metadata !146, i32 172, i64 8, i64 8, i32 0, i32 0, null, metadata !270, i32 0, null, metadata !690} ; [ DW_TAG_class_type ]
!270 = metadata !{metadata !271, metadata !272, metadata !672, metadata !676, metadata !679, metadata !684, metadata !687}
!271 = metadata !{i32 786460, metadata !269, null, metadata !146, i32 0, i64 0, i64 0, i64 0, i32 0, metadata !164} ; [ DW_TAG_inheritance ]
!272 = metadata !{i32 786445, metadata !269, metadata !"Val", metadata !146, i32 174, i64 8, i64 8, i64 0, i32 0, metadata !273} ; [ DW_TAG_member ]
!273 = metadata !{i32 786485, null, metadata !"", null, i32 0, i64 0, i64 0, i64 0, i32 0, metadata !274} ; [ DW_TAG_volatile_type ]
!274 = metadata !{i32 786434, metadata !275, metadata !"sc_uint<2>", metadata !277, i32 269, i64 8, i64 8, i32 0, i32 0, null, metadata !278, i32 0, null, metadata !670} ; [ DW_TAG_class_type ]
!275 = metadata !{i32 786489, metadata !276, metadata !"sc_dt", metadata !277, i32 67} ; [ DW_TAG_namespace ]
!276 = metadata !{i32 786489, null, metadata !"_ap_sc_", metadata !277, i32 64} ; [ DW_TAG_namespace ]
!277 = metadata !{i32 786473, metadata !"C:/Xilinx/Vivado_HLS/2015.4/common/technology/autopilot/ap_sysc/ap_sc_dt.h", metadata !"c:/HOC_TAP/System_C/Final_report/A_Design_problem/3.4_bit_multiplexor_4to1", null} ; [ DW_TAG_file_type ]
!278 = metadata !{metadata !279, metadata !583, metadata !587, metadata !593, metadata !598, metadata !604, metadata !608, metadata !614, metadata !617, metadata !620, metadata !623, metadata !626, metadata !629, metadata !632, metadata !635, metadata !638, metadata !641, metadata !644, metadata !647, metadata !650, metadata !653, metadata !657, metadata !662, metadata !666, metadata !669}
!279 = metadata !{i32 786460, metadata !274, null, metadata !277, i32 0, i64 0, i64 0, i64 0, i32 0, metadata !280} ; [ DW_TAG_inheritance ]
!280 = metadata !{i32 786434, null, metadata !"ap_int_base<2, false, true>", metadata !281, i32 1386, i64 8, i64 8, i32 0, i32 0, null, metadata !282, i32 0, null, metadata !581} ; [ DW_TAG_class_type ]
!281 = metadata !{i32 786473, metadata !"C:/Xilinx/Vivado_HLS/2015.4/common/technology/autopilot\5Cap_int_syn.h", metadata !"c:/HOC_TAP/System_C/Final_report/A_Design_problem/3.4_bit_multiplexor_4to1", null} ; [ DW_TAG_file_type ]
!282 = metadata !{metadata !283, metadata !297, metadata !301, metadata !309, metadata !315, metadata !318, metadata !322, metadata !326, metadata !330, metadata !334, metadata !337, metadata !341, metadata !345, metadata !349, metadata !354, metadata !359, metadata !363, metadata !367, metadata !370, metadata !373, metadata !377, metadata !380, metadata !383, metadata !384, metadata !388, metadata !391, metadata !394, metadata !397, metadata !400, metadata !403, metadata !406, metadata !409, metadata !412, metadata !415, metadata !418, metadata !421, metadata !430, metadata !433, metadata !434, metadata !435, metadata !436, metadata !437, metadata !440, metadata !443, metadata !446, metadata !449, metadata !452, metadata !455, metadata !458, metadata !459, metadata !463, metadata !466, metadata !467, metadata !468, metadata !469, metadata !470, metadata !471, metadata !474, metadata !475, metadata !478, metadata !479, metadata !480, metadata !481, metadata !482, metadata !483, metadata !486, metadata !487, metadata !488, metadata !491, metadata !492, metadata !495, metadata !496, metadata !500, metadata !504, metadata !505, metadata !508, metadata !509, metadata !548, metadata !549, metadata !550, metadata !551, metadata !554, metadata !555, metadata !556, metadata !557, metadata !558, metadata !559, metadata !560, metadata !561, metadata !562, metadata !563, metadata !564, metadata !565, metadata !575, metadata !578}
!283 = metadata !{i32 786460, metadata !280, null, metadata !281, i32 0, i64 0, i64 0, i64 0, i32 0, metadata !284} ; [ DW_TAG_inheritance ]
!284 = metadata !{i32 786434, null, metadata !"ssdm_int<2 + 1024 * 0, false>", metadata !285, i32 6, i64 8, i64 8, i32 0, i32 0, null, metadata !286, i32 0, null, metadata !293} ; [ DW_TAG_class_type ]
!285 = metadata !{i32 786473, metadata !"C:/Xilinx/Vivado_HLS/2015.4/common/technology/autopilot/etc/autopilot_dt.def", metadata !"c:/HOC_TAP/System_C/Final_report/A_Design_problem/3.4_bit_multiplexor_4to1", null} ; [ DW_TAG_file_type ]
!286 = metadata !{metadata !287, metadata !289}
!287 = metadata !{i32 786445, metadata !284, metadata !"V", metadata !285, i32 6, i64 2, i64 2, i64 0, i32 0, metadata !288} ; [ DW_TAG_member ]
!288 = metadata !{i32 786468, null, metadata !"uint2", null, i32 0, i64 2, i64 2, i64 0, i32 0, i32 7} ; [ DW_TAG_base_type ]
!289 = metadata !{i32 786478, i32 0, metadata !284, metadata !"ssdm_int", metadata !"ssdm_int", metadata !"", metadata !285, i32 6, metadata !290, i1 false, i1 false, i32 0, i32 0, null, i32 256, i1 false, null, null, i32 0, metadata !158, i32 6} ; [ DW_TAG_subprogram ]
!290 = metadata !{i32 786453, i32 0, metadata !"", i32 0, i32 0, i64 0, i64 0, i64 0, i32 0, null, metadata !291, i32 0, i32 0} ; [ DW_TAG_subroutine_type ]
!291 = metadata !{null, metadata !292}
!292 = metadata !{i32 786447, i32 0, metadata !"", i32 0, i32 0, i64 64, i64 64, i64 0, i32 64, metadata !284} ; [ DW_TAG_pointer_type ]
!293 = metadata !{metadata !294, metadata !296}
!294 = metadata !{i32 786480, null, metadata !"_AP_N", metadata !295, i64 2, null, i32 0, i32 0} ; [ DW_TAG_template_value_parameter ]
!295 = metadata !{i32 786468, null, metadata !"int", null, i32 0, i64 32, i64 32, i64 0, i32 0, i32 5} ; [ DW_TAG_base_type ]
!296 = metadata !{i32 786480, null, metadata !"_AP_S", metadata !172, i64 0, null, i32 0, i32 0} ; [ DW_TAG_template_value_parameter ]
!297 = metadata !{i32 786478, i32 0, metadata !280, metadata !"ap_int_base", metadata !"ap_int_base", metadata !"", metadata !281, i32 1427, metadata !298, i1 false, i1 false, i32 0, i32 0, null, i32 256, i1 false, null, null, i32 0, metadata !158, i32 1427} ; [ DW_TAG_subprogram ]
!298 = metadata !{i32 786453, i32 0, metadata !"", i32 0, i32 0, i64 0, i64 0, i64 0, i32 0, null, metadata !299, i32 0, i32 0} ; [ DW_TAG_subroutine_type ]
!299 = metadata !{null, metadata !300}
!300 = metadata !{i32 786447, i32 0, metadata !"", i32 0, i32 0, i64 64, i64 64, i64 0, i32 64, metadata !280} ; [ DW_TAG_pointer_type ]
!301 = metadata !{i32 786478, i32 0, metadata !280, metadata !"ap_int_base<2, false>", metadata !"ap_int_base<2, false>", metadata !"", metadata !281, i32 1439, metadata !302, i1 false, i1 false, i32 0, i32 0, null, i32 256, i1 false, null, metadata !306, i32 0, metadata !158, i32 1439} ; [ DW_TAG_subprogram ]
!302 = metadata !{i32 786453, i32 0, metadata !"", i32 0, i32 0, i64 0, i64 0, i64 0, i32 0, null, metadata !303, i32 0, i32 0} ; [ DW_TAG_subroutine_type ]
!303 = metadata !{null, metadata !300, metadata !304}
!304 = metadata !{i32 786448, null, null, null, i32 0, i64 0, i64 0, i64 0, i32 0, metadata !305} ; [ DW_TAG_reference_type ]
!305 = metadata !{i32 786470, null, metadata !"", null, i32 0, i64 0, i64 0, i64 0, i32 0, metadata !280} ; [ DW_TAG_const_type ]
!306 = metadata !{metadata !307, metadata !308}
!307 = metadata !{i32 786480, null, metadata !"_AP_W2", metadata !295, i64 2, null, i32 0, i32 0} ; [ DW_TAG_template_value_parameter ]
!308 = metadata !{i32 786480, null, metadata !"_AP_S2", metadata !172, i64 0, null, i32 0, i32 0} ; [ DW_TAG_template_value_parameter ]
!309 = metadata !{i32 786478, i32 0, metadata !280, metadata !"ap_int_base<2, false>", metadata !"ap_int_base<2, false>", metadata !"", metadata !281, i32 1442, metadata !310, i1 false, i1 false, i32 0, i32 0, null, i32 256, i1 false, null, metadata !306, i32 0, metadata !158, i32 1442} ; [ DW_TAG_subprogram ]
!310 = metadata !{i32 786453, i32 0, metadata !"", i32 0, i32 0, i64 0, i64 0, i64 0, i32 0, null, metadata !311, i32 0, i32 0} ; [ DW_TAG_subroutine_type ]
!311 = metadata !{null, metadata !300, metadata !312}
!312 = metadata !{i32 786448, null, null, null, i32 0, i64 0, i64 0, i64 0, i32 0, metadata !313} ; [ DW_TAG_reference_type ]
!313 = metadata !{i32 786470, null, metadata !"", null, i32 0, i64 0, i64 0, i64 0, i32 0, metadata !314} ; [ DW_TAG_const_type ]
!314 = metadata !{i32 786485, null, metadata !"", null, i32 0, i64 0, i64 0, i64 0, i32 0, metadata !280} ; [ DW_TAG_volatile_type ]
!315 = metadata !{i32 786478, i32 0, metadata !280, metadata !"ap_int_base", metadata !"ap_int_base", metadata !"", metadata !281, i32 1449, metadata !316, i1 false, i1 false, i32 0, i32 0, null, i32 384, i1 false, null, null, i32 0, metadata !158, i32 1449} ; [ DW_TAG_subprogram ]
!316 = metadata !{i32 786453, i32 0, metadata !"", i32 0, i32 0, i64 0, i64 0, i64 0, i32 0, null, metadata !317, i32 0, i32 0} ; [ DW_TAG_subroutine_type ]
!317 = metadata !{null, metadata !300, metadata !172}
!318 = metadata !{i32 786478, i32 0, metadata !280, metadata !"ap_int_base", metadata !"ap_int_base", metadata !"", metadata !281, i32 1450, metadata !319, i1 false, i1 false, i32 0, i32 0, null, i32 384, i1 false, null, null, i32 0, metadata !158, i32 1450} ; [ DW_TAG_subprogram ]
!319 = metadata !{i32 786453, i32 0, metadata !"", i32 0, i32 0, i64 0, i64 0, i64 0, i32 0, null, metadata !320, i32 0, i32 0} ; [ DW_TAG_subroutine_type ]
!320 = metadata !{null, metadata !300, metadata !321}
!321 = metadata !{i32 786468, null, metadata !"signed char", null, i32 0, i64 8, i64 8, i64 0, i32 0, i32 6} ; [ DW_TAG_base_type ]
!322 = metadata !{i32 786478, i32 0, metadata !280, metadata !"ap_int_base", metadata !"ap_int_base", metadata !"", metadata !281, i32 1451, metadata !323, i1 false, i1 false, i32 0, i32 0, null, i32 384, i1 false, null, null, i32 0, metadata !158, i32 1451} ; [ DW_TAG_subprogram ]
!323 = metadata !{i32 786453, i32 0, metadata !"", i32 0, i32 0, i64 0, i64 0, i64 0, i32 0, null, metadata !324, i32 0, i32 0} ; [ DW_TAG_subroutine_type ]
!324 = metadata !{null, metadata !300, metadata !325}
!325 = metadata !{i32 786468, null, metadata !"unsigned char", null, i32 0, i64 8, i64 8, i64 0, i32 0, i32 8} ; [ DW_TAG_base_type ]
!326 = metadata !{i32 786478, i32 0, metadata !280, metadata !"ap_int_base", metadata !"ap_int_base", metadata !"", metadata !281, i32 1452, metadata !327, i1 false, i1 false, i32 0, i32 0, null, i32 384, i1 false, null, null, i32 0, metadata !158, i32 1452} ; [ DW_TAG_subprogram ]
!327 = metadata !{i32 786453, i32 0, metadata !"", i32 0, i32 0, i64 0, i64 0, i64 0, i32 0, null, metadata !328, i32 0, i32 0} ; [ DW_TAG_subroutine_type ]
!328 = metadata !{null, metadata !300, metadata !329}
!329 = metadata !{i32 786468, null, metadata !"short", null, i32 0, i64 16, i64 16, i64 0, i32 0, i32 5} ; [ DW_TAG_base_type ]
!330 = metadata !{i32 786478, i32 0, metadata !280, metadata !"ap_int_base", metadata !"ap_int_base", metadata !"", metadata !281, i32 1453, metadata !331, i1 false, i1 false, i32 0, i32 0, null, i32 384, i1 false, null, null, i32 0, metadata !158, i32 1453} ; [ DW_TAG_subprogram ]
!331 = metadata !{i32 786453, i32 0, metadata !"", i32 0, i32 0, i64 0, i64 0, i64 0, i32 0, null, metadata !332, i32 0, i32 0} ; [ DW_TAG_subroutine_type ]
!332 = metadata !{null, metadata !300, metadata !333}
!333 = metadata !{i32 786468, null, metadata !"unsigned short", null, i32 0, i64 16, i64 16, i64 0, i32 0, i32 7} ; [ DW_TAG_base_type ]
!334 = metadata !{i32 786478, i32 0, metadata !280, metadata !"ap_int_base", metadata !"ap_int_base", metadata !"", metadata !281, i32 1454, metadata !335, i1 false, i1 false, i32 0, i32 0, null, i32 384, i1 false, null, null, i32 0, metadata !158, i32 1454} ; [ DW_TAG_subprogram ]
!335 = metadata !{i32 786453, i32 0, metadata !"", i32 0, i32 0, i64 0, i64 0, i64 0, i32 0, null, metadata !336, i32 0, i32 0} ; [ DW_TAG_subroutine_type ]
!336 = metadata !{null, metadata !300, metadata !295}
!337 = metadata !{i32 786478, i32 0, metadata !280, metadata !"ap_int_base", metadata !"ap_int_base", metadata !"", metadata !281, i32 1455, metadata !338, i1 false, i1 false, i32 0, i32 0, null, i32 384, i1 false, null, null, i32 0, metadata !158, i32 1455} ; [ DW_TAG_subprogram ]
!338 = metadata !{i32 786453, i32 0, metadata !"", i32 0, i32 0, i64 0, i64 0, i64 0, i32 0, null, metadata !339, i32 0, i32 0} ; [ DW_TAG_subroutine_type ]
!339 = metadata !{null, metadata !300, metadata !340}
!340 = metadata !{i32 786468, null, metadata !"unsigned int", null, i32 0, i64 32, i64 32, i64 0, i32 0, i32 7} ; [ DW_TAG_base_type ]
!341 = metadata !{i32 786478, i32 0, metadata !280, metadata !"ap_int_base", metadata !"ap_int_base", metadata !"", metadata !281, i32 1456, metadata !342, i1 false, i1 false, i32 0, i32 0, null, i32 384, i1 false, null, null, i32 0, metadata !158, i32 1456} ; [ DW_TAG_subprogram ]
!342 = metadata !{i32 786453, i32 0, metadata !"", i32 0, i32 0, i64 0, i64 0, i64 0, i32 0, null, metadata !343, i32 0, i32 0} ; [ DW_TAG_subroutine_type ]
!343 = metadata !{null, metadata !300, metadata !344}
!344 = metadata !{i32 786468, null, metadata !"long int", null, i32 0, i64 32, i64 32, i64 0, i32 0, i32 5} ; [ DW_TAG_base_type ]
!345 = metadata !{i32 786478, i32 0, metadata !280, metadata !"ap_int_base", metadata !"ap_int_base", metadata !"", metadata !281, i32 1457, metadata !346, i1 false, i1 false, i32 0, i32 0, null, i32 384, i1 false, null, null, i32 0, metadata !158, i32 1457} ; [ DW_TAG_subprogram ]
!346 = metadata !{i32 786453, i32 0, metadata !"", i32 0, i32 0, i64 0, i64 0, i64 0, i32 0, null, metadata !347, i32 0, i32 0} ; [ DW_TAG_subroutine_type ]
!347 = metadata !{null, metadata !300, metadata !348}
!348 = metadata !{i32 786468, null, metadata !"long unsigned int", null, i32 0, i64 32, i64 32, i64 0, i32 0, i32 7} ; [ DW_TAG_base_type ]
!349 = metadata !{i32 786478, i32 0, metadata !280, metadata !"ap_int_base", metadata !"ap_int_base", metadata !"", metadata !281, i32 1458, metadata !350, i1 false, i1 false, i32 0, i32 0, null, i32 384, i1 false, null, null, i32 0, metadata !158, i32 1458} ; [ DW_TAG_subprogram ]
!350 = metadata !{i32 786453, i32 0, metadata !"", i32 0, i32 0, i64 0, i64 0, i64 0, i32 0, null, metadata !351, i32 0, i32 0} ; [ DW_TAG_subroutine_type ]
!351 = metadata !{null, metadata !300, metadata !352}
!352 = metadata !{i32 786454, null, metadata !"ap_slong", metadata !281, i32 110, i64 0, i64 0, i64 0, i32 0, metadata !353} ; [ DW_TAG_typedef ]
!353 = metadata !{i32 786468, null, metadata !"long long int", null, i32 0, i64 64, i64 64, i64 0, i32 0, i32 5} ; [ DW_TAG_base_type ]
!354 = metadata !{i32 786478, i32 0, metadata !280, metadata !"ap_int_base", metadata !"ap_int_base", metadata !"", metadata !281, i32 1459, metadata !355, i1 false, i1 false, i32 0, i32 0, null, i32 384, i1 false, null, null, i32 0, metadata !158, i32 1459} ; [ DW_TAG_subprogram ]
!355 = metadata !{i32 786453, i32 0, metadata !"", i32 0, i32 0, i64 0, i64 0, i64 0, i32 0, null, metadata !356, i32 0, i32 0} ; [ DW_TAG_subroutine_type ]
!356 = metadata !{null, metadata !300, metadata !357}
!357 = metadata !{i32 786454, null, metadata !"ap_ulong", metadata !281, i32 109, i64 0, i64 0, i64 0, i32 0, metadata !358} ; [ DW_TAG_typedef ]
!358 = metadata !{i32 786468, null, metadata !"long long unsigned int", null, i32 0, i64 64, i64 64, i64 0, i32 0, i32 7} ; [ DW_TAG_base_type ]
!359 = metadata !{i32 786478, i32 0, metadata !280, metadata !"ap_int_base", metadata !"ap_int_base", metadata !"", metadata !281, i32 1460, metadata !360, i1 false, i1 false, i32 0, i32 0, null, i32 384, i1 false, null, null, i32 0, metadata !158, i32 1460} ; [ DW_TAG_subprogram ]
!360 = metadata !{i32 786453, i32 0, metadata !"", i32 0, i32 0, i64 0, i64 0, i64 0, i32 0, null, metadata !361, i32 0, i32 0} ; [ DW_TAG_subroutine_type ]
!361 = metadata !{null, metadata !300, metadata !362}
!362 = metadata !{i32 786468, null, metadata !"float", null, i32 0, i64 32, i64 32, i64 0, i32 0, i32 4} ; [ DW_TAG_base_type ]
!363 = metadata !{i32 786478, i32 0, metadata !280, metadata !"ap_int_base", metadata !"ap_int_base", metadata !"", metadata !281, i32 1461, metadata !364, i1 false, i1 false, i32 0, i32 0, null, i32 384, i1 false, null, null, i32 0, metadata !158, i32 1461} ; [ DW_TAG_subprogram ]
!364 = metadata !{i32 786453, i32 0, metadata !"", i32 0, i32 0, i64 0, i64 0, i64 0, i32 0, null, metadata !365, i32 0, i32 0} ; [ DW_TAG_subroutine_type ]
!365 = metadata !{null, metadata !300, metadata !366}
!366 = metadata !{i32 786468, null, metadata !"double", null, i32 0, i64 64, i64 64, i64 0, i32 0, i32 4} ; [ DW_TAG_base_type ]
!367 = metadata !{i32 786478, i32 0, metadata !280, metadata !"ap_int_base", metadata !"ap_int_base", metadata !"", metadata !281, i32 1488, metadata !368, i1 false, i1 false, i32 0, i32 0, null, i32 256, i1 false, null, null, i32 0, metadata !158, i32 1488} ; [ DW_TAG_subprogram ]
!368 = metadata !{i32 786453, i32 0, metadata !"", i32 0, i32 0, i64 0, i64 0, i64 0, i32 0, null, metadata !369, i32 0, i32 0} ; [ DW_TAG_subroutine_type ]
!369 = metadata !{null, metadata !300, metadata !201}
!370 = metadata !{i32 786478, i32 0, metadata !280, metadata !"ap_int_base", metadata !"ap_int_base", metadata !"", metadata !281, i32 1495, metadata !371, i1 false, i1 false, i32 0, i32 0, null, i32 256, i1 false, null, null, i32 0, metadata !158, i32 1495} ; [ DW_TAG_subprogram ]
!371 = metadata !{i32 786453, i32 0, metadata !"", i32 0, i32 0, i64 0, i64 0, i64 0, i32 0, null, metadata !372, i32 0, i32 0} ; [ DW_TAG_subroutine_type ]
!372 = metadata !{null, metadata !300, metadata !201, metadata !321}
!373 = metadata !{i32 786478, i32 0, metadata !280, metadata !"read", metadata !"read", metadata !"_ZNV11ap_int_baseILi2ELb0ELb1EE4readEv", metadata !281, i32 1516, metadata !374, i1 false, i1 false, i32 0, i32 0, null, i32 256, i1 false, null, null, i32 0, metadata !158, i32 1516} ; [ DW_TAG_subprogram ]
!374 = metadata !{i32 786453, i32 0, metadata !"", i32 0, i32 0, i64 0, i64 0, i64 0, i32 0, null, metadata !375, i32 0, i32 0} ; [ DW_TAG_subroutine_type ]
!375 = metadata !{metadata !280, metadata !376}
!376 = metadata !{i32 786447, i32 0, metadata !"", i32 0, i32 0, i64 64, i64 64, i64 0, i32 64, metadata !314} ; [ DW_TAG_pointer_type ]
!377 = metadata !{i32 786478, i32 0, metadata !280, metadata !"write", metadata !"write", metadata !"_ZNV11ap_int_baseILi2ELb0ELb1EE5writeERKS0_", metadata !281, i32 1522, metadata !378, i1 false, i1 false, i32 0, i32 0, null, i32 256, i1 false, null, null, i32 0, metadata !158, i32 1522} ; [ DW_TAG_subprogram ]
!378 = metadata !{i32 786453, i32 0, metadata !"", i32 0, i32 0, i64 0, i64 0, i64 0, i32 0, null, metadata !379, i32 0, i32 0} ; [ DW_TAG_subroutine_type ]
!379 = metadata !{null, metadata !376, metadata !304}
!380 = metadata !{i32 786478, i32 0, metadata !280, metadata !"operator=", metadata !"operator=", metadata !"_ZNV11ap_int_baseILi2ELb0ELb1EEaSERVKS0_", metadata !281, i32 1534, metadata !381, i1 false, i1 false, i32 0, i32 0, null, i32 256, i1 false, null, null, i32 0, metadata !158, i32 1534} ; [ DW_TAG_subprogram ]
!381 = metadata !{i32 786453, i32 0, metadata !"", i32 0, i32 0, i64 0, i64 0, i64 0, i32 0, null, metadata !382, i32 0, i32 0} ; [ DW_TAG_subroutine_type ]
!382 = metadata !{null, metadata !376, metadata !312}
!383 = metadata !{i32 786478, i32 0, metadata !280, metadata !"operator=", metadata !"operator=", metadata !"_ZNV11ap_int_baseILi2ELb0ELb1EEaSERKS0_", metadata !281, i32 1543, metadata !378, i1 false, i1 false, i32 0, i32 0, null, i32 256, i1 false, null, null, i32 0, metadata !158, i32 1543} ; [ DW_TAG_subprogram ]
!384 = metadata !{i32 786478, i32 0, metadata !280, metadata !"operator=", metadata !"operator=", metadata !"_ZN11ap_int_baseILi2ELb0ELb1EEaSERVKS0_", metadata !281, i32 1576, metadata !385, i1 false, i1 false, i32 0, i32 0, null, i32 256, i1 false, null, null, i32 0, metadata !158, i32 1576} ; [ DW_TAG_subprogram ]
!385 = metadata !{i32 786453, i32 0, metadata !"", i32 0, i32 0, i64 0, i64 0, i64 0, i32 0, null, metadata !386, i32 0, i32 0} ; [ DW_TAG_subroutine_type ]
!386 = metadata !{metadata !387, metadata !300, metadata !312}
!387 = metadata !{i32 786448, null, null, null, i32 0, i64 0, i64 0, i64 0, i32 0, metadata !280} ; [ DW_TAG_reference_type ]
!388 = metadata !{i32 786478, i32 0, metadata !280, metadata !"operator=", metadata !"operator=", metadata !"_ZN11ap_int_baseILi2ELb0ELb1EEaSERKS0_", metadata !281, i32 1581, metadata !389, i1 false, i1 false, i32 0, i32 0, null, i32 256, i1 false, null, null, i32 0, metadata !158, i32 1581} ; [ DW_TAG_subprogram ]
!389 = metadata !{i32 786453, i32 0, metadata !"", i32 0, i32 0, i64 0, i64 0, i64 0, i32 0, null, metadata !390, i32 0, i32 0} ; [ DW_TAG_subroutine_type ]
!390 = metadata !{metadata !387, metadata !300, metadata !304}
!391 = metadata !{i32 786478, i32 0, metadata !280, metadata !"operator=", metadata !"operator=", metadata !"_ZN11ap_int_baseILi2ELb0ELb1EEaSEPKc", metadata !281, i32 1585, metadata !392, i1 false, i1 false, i32 0, i32 0, null, i32 256, i1 false, null, null, i32 0, metadata !158, i32 1585} ; [ DW_TAG_subprogram ]
!392 = metadata !{i32 786453, i32 0, metadata !"", i32 0, i32 0, i64 0, i64 0, i64 0, i32 0, null, metadata !393, i32 0, i32 0} ; [ DW_TAG_subroutine_type ]
!393 = metadata !{metadata !387, metadata !300, metadata !201}
!394 = metadata !{i32 786478, i32 0, metadata !280, metadata !"set", metadata !"set", metadata !"_ZN11ap_int_baseILi2ELb0ELb1EE3setEPKca", metadata !281, i32 1593, metadata !395, i1 false, i1 false, i32 0, i32 0, null, i32 256, i1 false, null, null, i32 0, metadata !158, i32 1593} ; [ DW_TAG_subprogram ]
!395 = metadata !{i32 786453, i32 0, metadata !"", i32 0, i32 0, i64 0, i64 0, i64 0, i32 0, null, metadata !396, i32 0, i32 0} ; [ DW_TAG_subroutine_type ]
!396 = metadata !{metadata !387, metadata !300, metadata !201, metadata !321}
!397 = metadata !{i32 786478, i32 0, metadata !280, metadata !"operator=", metadata !"operator=", metadata !"_ZN11ap_int_baseILi2ELb0ELb1EEaSEc", metadata !281, i32 1607, metadata !398, i1 false, i1 false, i32 0, i32 0, null, i32 256, i1 false, null, null, i32 0, metadata !158, i32 1607} ; [ DW_TAG_subprogram ]
!398 = metadata !{i32 786453, i32 0, metadata !"", i32 0, i32 0, i64 0, i64 0, i64 0, i32 0, null, metadata !399, i32 0, i32 0} ; [ DW_TAG_subroutine_type ]
!399 = metadata !{metadata !387, metadata !300, metadata !203}
!400 = metadata !{i32 786478, i32 0, metadata !280, metadata !"operator=", metadata !"operator=", metadata !"_ZN11ap_int_baseILi2ELb0ELb1EEaSEh", metadata !281, i32 1608, metadata !401, i1 false, i1 false, i32 0, i32 0, null, i32 256, i1 false, null, null, i32 0, metadata !158, i32 1608} ; [ DW_TAG_subprogram ]
!401 = metadata !{i32 786453, i32 0, metadata !"", i32 0, i32 0, i64 0, i64 0, i64 0, i32 0, null, metadata !402, i32 0, i32 0} ; [ DW_TAG_subroutine_type ]
!402 = metadata !{metadata !387, metadata !300, metadata !325}
!403 = metadata !{i32 786478, i32 0, metadata !280, metadata !"operator=", metadata !"operator=", metadata !"_ZN11ap_int_baseILi2ELb0ELb1EEaSEs", metadata !281, i32 1609, metadata !404, i1 false, i1 false, i32 0, i32 0, null, i32 256, i1 false, null, null, i32 0, metadata !158, i32 1609} ; [ DW_TAG_subprogram ]
!404 = metadata !{i32 786453, i32 0, metadata !"", i32 0, i32 0, i64 0, i64 0, i64 0, i32 0, null, metadata !405, i32 0, i32 0} ; [ DW_TAG_subroutine_type ]
!405 = metadata !{metadata !387, metadata !300, metadata !329}
!406 = metadata !{i32 786478, i32 0, metadata !280, metadata !"operator=", metadata !"operator=", metadata !"_ZN11ap_int_baseILi2ELb0ELb1EEaSEt", metadata !281, i32 1610, metadata !407, i1 false, i1 false, i32 0, i32 0, null, i32 256, i1 false, null, null, i32 0, metadata !158, i32 1610} ; [ DW_TAG_subprogram ]
!407 = metadata !{i32 786453, i32 0, metadata !"", i32 0, i32 0, i64 0, i64 0, i64 0, i32 0, null, metadata !408, i32 0, i32 0} ; [ DW_TAG_subroutine_type ]
!408 = metadata !{metadata !387, metadata !300, metadata !333}
!409 = metadata !{i32 786478, i32 0, metadata !280, metadata !"operator=", metadata !"operator=", metadata !"_ZN11ap_int_baseILi2ELb0ELb1EEaSEi", metadata !281, i32 1611, metadata !410, i1 false, i1 false, i32 0, i32 0, null, i32 256, i1 false, null, null, i32 0, metadata !158, i32 1611} ; [ DW_TAG_subprogram ]
!410 = metadata !{i32 786453, i32 0, metadata !"", i32 0, i32 0, i64 0, i64 0, i64 0, i32 0, null, metadata !411, i32 0, i32 0} ; [ DW_TAG_subroutine_type ]
!411 = metadata !{metadata !387, metadata !300, metadata !295}
!412 = metadata !{i32 786478, i32 0, metadata !280, metadata !"operator=", metadata !"operator=", metadata !"_ZN11ap_int_baseILi2ELb0ELb1EEaSEj", metadata !281, i32 1612, metadata !413, i1 false, i1 false, i32 0, i32 0, null, i32 256, i1 false, null, null, i32 0, metadata !158, i32 1612} ; [ DW_TAG_subprogram ]
!413 = metadata !{i32 786453, i32 0, metadata !"", i32 0, i32 0, i64 0, i64 0, i64 0, i32 0, null, metadata !414, i32 0, i32 0} ; [ DW_TAG_subroutine_type ]
!414 = metadata !{metadata !387, metadata !300, metadata !340}
!415 = metadata !{i32 786478, i32 0, metadata !280, metadata !"operator=", metadata !"operator=", metadata !"_ZN11ap_int_baseILi2ELb0ELb1EEaSEx", metadata !281, i32 1613, metadata !416, i1 false, i1 false, i32 0, i32 0, null, i32 256, i1 false, null, null, i32 0, metadata !158, i32 1613} ; [ DW_TAG_subprogram ]
!416 = metadata !{i32 786453, i32 0, metadata !"", i32 0, i32 0, i64 0, i64 0, i64 0, i32 0, null, metadata !417, i32 0, i32 0} ; [ DW_TAG_subroutine_type ]
!417 = metadata !{metadata !387, metadata !300, metadata !352}
!418 = metadata !{i32 786478, i32 0, metadata !280, metadata !"operator=", metadata !"operator=", metadata !"_ZN11ap_int_baseILi2ELb0ELb1EEaSEy", metadata !281, i32 1614, metadata !419, i1 false, i1 false, i32 0, i32 0, null, i32 256, i1 false, null, null, i32 0, metadata !158, i32 1614} ; [ DW_TAG_subprogram ]
!419 = metadata !{i32 786453, i32 0, metadata !"", i32 0, i32 0, i64 0, i64 0, i64 0, i32 0, null, metadata !420, i32 0, i32 0} ; [ DW_TAG_subroutine_type ]
!420 = metadata !{metadata !387, metadata !300, metadata !357}
!421 = metadata !{i32 786478, i32 0, metadata !280, metadata !"operator unsigned char", metadata !"operator unsigned char", metadata !"_ZNK11ap_int_baseILi2ELb0ELb1EEcvhEv", metadata !281, i32 1652, metadata !422, i1 false, i1 false, i32 0, i32 0, null, i32 256, i1 false, null, null, i32 0, metadata !158, i32 1652} ; [ DW_TAG_subprogram ]
!422 = metadata !{i32 786453, i32 0, metadata !"", i32 0, i32 0, i64 0, i64 0, i64 0, i32 0, null, metadata !423, i32 0, i32 0} ; [ DW_TAG_subroutine_type ]
!423 = metadata !{metadata !424, metadata !429}
!424 = metadata !{i32 786454, metadata !280, metadata !"RetType", metadata !281, i32 1391, i64 0, i64 0, i64 0, i32 0, metadata !425} ; [ DW_TAG_typedef ]
!425 = metadata !{i32 786454, metadata !426, metadata !"Type", metadata !281, i32 1363, i64 0, i64 0, i64 0, i32 0, metadata !325} ; [ DW_TAG_typedef ]
!426 = metadata !{i32 786434, null, metadata !"retval<1, false>", metadata !281, i32 1362, i64 8, i64 8, i32 0, i32 0, null, metadata !214, i32 0, null, metadata !427} ; [ DW_TAG_class_type ]
!427 = metadata !{metadata !428, metadata !296}
!428 = metadata !{i32 786480, null, metadata !"_AP_N", metadata !295, i64 1, null, i32 0, i32 0} ; [ DW_TAG_template_value_parameter ]
!429 = metadata !{i32 786447, i32 0, metadata !"", i32 0, i32 0, i64 64, i64 64, i64 0, i32 64, metadata !305} ; [ DW_TAG_pointer_type ]
!430 = metadata !{i32 786478, i32 0, metadata !280, metadata !"to_bool", metadata !"to_bool", metadata !"_ZNK11ap_int_baseILi2ELb0ELb1EE7to_boolEv", metadata !281, i32 1658, metadata !431, i1 false, i1 false, i32 0, i32 0, null, i32 256, i1 false, null, null, i32 0, metadata !158, i32 1658} ; [ DW_TAG_subprogram ]
!431 = metadata !{i32 786453, i32 0, metadata !"", i32 0, i32 0, i64 0, i64 0, i64 0, i32 0, null, metadata !432, i32 0, i32 0} ; [ DW_TAG_subroutine_type ]
!432 = metadata !{metadata !172, metadata !429}
!433 = metadata !{i32 786478, i32 0, metadata !280, metadata !"to_uchar", metadata !"to_uchar", metadata !"_ZNK11ap_int_baseILi2ELb0ELb1EE8to_ucharEv", metadata !281, i32 1659, metadata !431, i1 false, i1 false, i32 0, i32 0, null, i32 256, i1 false, null, null, i32 0, metadata !158, i32 1659} ; [ DW_TAG_subprogram ]
!434 = metadata !{i32 786478, i32 0, metadata !280, metadata !"to_char", metadata !"to_char", metadata !"_ZNK11ap_int_baseILi2ELb0ELb1EE7to_charEv", metadata !281, i32 1660, metadata !431, i1 false, i1 false, i32 0, i32 0, null, i32 256, i1 false, null, null, i32 0, metadata !158, i32 1660} ; [ DW_TAG_subprogram ]
!435 = metadata !{i32 786478, i32 0, metadata !280, metadata !"to_ushort", metadata !"to_ushort", metadata !"_ZNK11ap_int_baseILi2ELb0ELb1EE9to_ushortEv", metadata !281, i32 1661, metadata !431, i1 false, i1 false, i32 0, i32 0, null, i32 256, i1 false, null, null, i32 0, metadata !158, i32 1661} ; [ DW_TAG_subprogram ]
!436 = metadata !{i32 786478, i32 0, metadata !280, metadata !"to_short", metadata !"to_short", metadata !"_ZNK11ap_int_baseILi2ELb0ELb1EE8to_shortEv", metadata !281, i32 1662, metadata !431, i1 false, i1 false, i32 0, i32 0, null, i32 256, i1 false, null, null, i32 0, metadata !158, i32 1662} ; [ DW_TAG_subprogram ]
!437 = metadata !{i32 786478, i32 0, metadata !280, metadata !"to_int", metadata !"to_int", metadata !"_ZNK11ap_int_baseILi2ELb0ELb1EE6to_intEv", metadata !281, i32 1663, metadata !438, i1 false, i1 false, i32 0, i32 0, null, i32 256, i1 false, null, null, i32 0, metadata !158, i32 1663} ; [ DW_TAG_subprogram ]
!438 = metadata !{i32 786453, i32 0, metadata !"", i32 0, i32 0, i64 0, i64 0, i64 0, i32 0, null, metadata !439, i32 0, i32 0} ; [ DW_TAG_subroutine_type ]
!439 = metadata !{metadata !295, metadata !429}
!440 = metadata !{i32 786478, i32 0, metadata !280, metadata !"to_uint", metadata !"to_uint", metadata !"_ZNK11ap_int_baseILi2ELb0ELb1EE7to_uintEv", metadata !281, i32 1664, metadata !441, i1 false, i1 false, i32 0, i32 0, null, i32 256, i1 false, null, null, i32 0, metadata !158, i32 1664} ; [ DW_TAG_subprogram ]
!441 = metadata !{i32 786453, i32 0, metadata !"", i32 0, i32 0, i64 0, i64 0, i64 0, i32 0, null, metadata !442, i32 0, i32 0} ; [ DW_TAG_subroutine_type ]
!442 = metadata !{metadata !340, metadata !429}
!443 = metadata !{i32 786478, i32 0, metadata !280, metadata !"to_long", metadata !"to_long", metadata !"_ZNK11ap_int_baseILi2ELb0ELb1EE7to_longEv", metadata !281, i32 1665, metadata !444, i1 false, i1 false, i32 0, i32 0, null, i32 256, i1 false, null, null, i32 0, metadata !158, i32 1665} ; [ DW_TAG_subprogram ]
!444 = metadata !{i32 786453, i32 0, metadata !"", i32 0, i32 0, i64 0, i64 0, i64 0, i32 0, null, metadata !445, i32 0, i32 0} ; [ DW_TAG_subroutine_type ]
!445 = metadata !{metadata !344, metadata !429}
!446 = metadata !{i32 786478, i32 0, metadata !280, metadata !"to_ulong", metadata !"to_ulong", metadata !"_ZNK11ap_int_baseILi2ELb0ELb1EE8to_ulongEv", metadata !281, i32 1666, metadata !447, i1 false, i1 false, i32 0, i32 0, null, i32 256, i1 false, null, null, i32 0, metadata !158, i32 1666} ; [ DW_TAG_subprogram ]
!447 = metadata !{i32 786453, i32 0, metadata !"", i32 0, i32 0, i64 0, i64 0, i64 0, i32 0, null, metadata !448, i32 0, i32 0} ; [ DW_TAG_subroutine_type ]
!448 = metadata !{metadata !348, metadata !429}
!449 = metadata !{i32 786478, i32 0, metadata !280, metadata !"to_int64", metadata !"to_int64", metadata !"_ZNK11ap_int_baseILi2ELb0ELb1EE8to_int64Ev", metadata !281, i32 1667, metadata !450, i1 false, i1 false, i32 0, i32 0, null, i32 256, i1 false, null, null, i32 0, metadata !158, i32 1667} ; [ DW_TAG_subprogram ]
!450 = metadata !{i32 786453, i32 0, metadata !"", i32 0, i32 0, i64 0, i64 0, i64 0, i32 0, null, metadata !451, i32 0, i32 0} ; [ DW_TAG_subroutine_type ]
!451 = metadata !{metadata !352, metadata !429}
!452 = metadata !{i32 786478, i32 0, metadata !280, metadata !"to_uint64", metadata !"to_uint64", metadata !"_ZNK11ap_int_baseILi2ELb0ELb1EE9to_uint64Ev", metadata !281, i32 1668, metadata !453, i1 false, i1 false, i32 0, i32 0, null, i32 256, i1 false, null, null, i32 0, metadata !158, i32 1668} ; [ DW_TAG_subprogram ]
!453 = metadata !{i32 786453, i32 0, metadata !"", i32 0, i32 0, i64 0, i64 0, i64 0, i32 0, null, metadata !454, i32 0, i32 0} ; [ DW_TAG_subroutine_type ]
!454 = metadata !{metadata !357, metadata !429}
!455 = metadata !{i32 786478, i32 0, metadata !280, metadata !"to_double", metadata !"to_double", metadata !"_ZNK11ap_int_baseILi2ELb0ELb1EE9to_doubleEv", metadata !281, i32 1669, metadata !456, i1 false, i1 false, i32 0, i32 0, null, i32 256, i1 false, null, null, i32 0, metadata !158, i32 1669} ; [ DW_TAG_subprogram ]
!456 = metadata !{i32 786453, i32 0, metadata !"", i32 0, i32 0, i64 0, i64 0, i64 0, i32 0, null, metadata !457, i32 0, i32 0} ; [ DW_TAG_subroutine_type ]
!457 = metadata !{metadata !366, metadata !429}
!458 = metadata !{i32 786478, i32 0, metadata !280, metadata !"length", metadata !"length", metadata !"_ZNK11ap_int_baseILi2ELb0ELb1EE6lengthEv", metadata !281, i32 1682, metadata !438, i1 false, i1 false, i32 0, i32 0, null, i32 256, i1 false, null, null, i32 0, metadata !158, i32 1682} ; [ DW_TAG_subprogram ]
!459 = metadata !{i32 786478, i32 0, metadata !280, metadata !"length", metadata !"length", metadata !"_ZNVK11ap_int_baseILi2ELb0ELb1EE6lengthEv", metadata !281, i32 1683, metadata !460, i1 false, i1 false, i32 0, i32 0, null, i32 256, i1 false, null, null, i32 0, metadata !158, i32 1683} ; [ DW_TAG_subprogram ]
!460 = metadata !{i32 786453, i32 0, metadata !"", i32 0, i32 0, i64 0, i64 0, i64 0, i32 0, null, metadata !461, i32 0, i32 0} ; [ DW_TAG_subroutine_type ]
!461 = metadata !{metadata !295, metadata !462}
!462 = metadata !{i32 786447, i32 0, metadata !"", i32 0, i32 0, i64 64, i64 64, i64 0, i32 64, metadata !313} ; [ DW_TAG_pointer_type ]
!463 = metadata !{i32 786478, i32 0, metadata !280, metadata !"reverse", metadata !"reverse", metadata !"_ZN11ap_int_baseILi2ELb0ELb1EE7reverseEv", metadata !281, i32 1688, metadata !464, i1 false, i1 false, i32 0, i32 0, null, i32 256, i1 false, null, null, i32 0, metadata !158, i32 1688} ; [ DW_TAG_subprogram ]
!464 = metadata !{i32 786453, i32 0, metadata !"", i32 0, i32 0, i64 0, i64 0, i64 0, i32 0, null, metadata !465, i32 0, i32 0} ; [ DW_TAG_subroutine_type ]
!465 = metadata !{metadata !387, metadata !300}
!466 = metadata !{i32 786478, i32 0, metadata !280, metadata !"iszero", metadata !"iszero", metadata !"_ZNK11ap_int_baseILi2ELb0ELb1EE6iszeroEv", metadata !281, i32 1694, metadata !431, i1 false, i1 false, i32 0, i32 0, null, i32 256, i1 false, null, null, i32 0, metadata !158, i32 1694} ; [ DW_TAG_subprogram ]
!467 = metadata !{i32 786478, i32 0, metadata !280, metadata !"is_zero", metadata !"is_zero", metadata !"_ZNK11ap_int_baseILi2ELb0ELb1EE7is_zeroEv", metadata !281, i32 1699, metadata !431, i1 false, i1 false, i32 0, i32 0, null, i32 256, i1 false, null, null, i32 0, metadata !158, i32 1699} ; [ DW_TAG_subprogram ]
!468 = metadata !{i32 786478, i32 0, metadata !280, metadata !"sign", metadata !"sign", metadata !"_ZNK11ap_int_baseILi2ELb0ELb1EE4signEv", metadata !281, i32 1704, metadata !431, i1 false, i1 false, i32 0, i32 0, null, i32 256, i1 false, null, null, i32 0, metadata !158, i32 1704} ; [ DW_TAG_subprogram ]
!469 = metadata !{i32 786478, i32 0, metadata !280, metadata !"clear", metadata !"clear", metadata !"_ZN11ap_int_baseILi2ELb0ELb1EE5clearEi", metadata !281, i32 1712, metadata !335, i1 false, i1 false, i32 0, i32 0, null, i32 256, i1 false, null, null, i32 0, metadata !158, i32 1712} ; [ DW_TAG_subprogram ]
!470 = metadata !{i32 786478, i32 0, metadata !280, metadata !"invert", metadata !"invert", metadata !"_ZN11ap_int_baseILi2ELb0ELb1EE6invertEi", metadata !281, i32 1718, metadata !335, i1 false, i1 false, i32 0, i32 0, null, i32 256, i1 false, null, null, i32 0, metadata !158, i32 1718} ; [ DW_TAG_subprogram ]
!471 = metadata !{i32 786478, i32 0, metadata !280, metadata !"test", metadata !"test", metadata !"_ZNK11ap_int_baseILi2ELb0ELb1EE4testEi", metadata !281, i32 1726, metadata !472, i1 false, i1 false, i32 0, i32 0, null, i32 256, i1 false, null, null, i32 0, metadata !158, i32 1726} ; [ DW_TAG_subprogram ]
!472 = metadata !{i32 786453, i32 0, metadata !"", i32 0, i32 0, i64 0, i64 0, i64 0, i32 0, null, metadata !473, i32 0, i32 0} ; [ DW_TAG_subroutine_type ]
!473 = metadata !{metadata !172, metadata !429, metadata !295}
!474 = metadata !{i32 786478, i32 0, metadata !280, metadata !"set", metadata !"set", metadata !"_ZN11ap_int_baseILi2ELb0ELb1EE3setEi", metadata !281, i32 1732, metadata !335, i1 false, i1 false, i32 0, i32 0, null, i32 256, i1 false, null, null, i32 0, metadata !158, i32 1732} ; [ DW_TAG_subprogram ]
!475 = metadata !{i32 786478, i32 0, metadata !280, metadata !"set", metadata !"set", metadata !"_ZN11ap_int_baseILi2ELb0ELb1EE3setEib", metadata !281, i32 1738, metadata !476, i1 false, i1 false, i32 0, i32 0, null, i32 256, i1 false, null, null, i32 0, metadata !158, i32 1738} ; [ DW_TAG_subprogram ]
!476 = metadata !{i32 786453, i32 0, metadata !"", i32 0, i32 0, i64 0, i64 0, i64 0, i32 0, null, metadata !477, i32 0, i32 0} ; [ DW_TAG_subroutine_type ]
!477 = metadata !{null, metadata !300, metadata !295, metadata !172}
!478 = metadata !{i32 786478, i32 0, metadata !280, metadata !"lrotate", metadata !"lrotate", metadata !"_ZN11ap_int_baseILi2ELb0ELb1EE7lrotateEi", metadata !281, i32 1745, metadata !335, i1 false, i1 false, i32 0, i32 0, null, i32 256, i1 false, null, null, i32 0, metadata !158, i32 1745} ; [ DW_TAG_subprogram ]
!479 = metadata !{i32 786478, i32 0, metadata !280, metadata !"rrotate", metadata !"rrotate", metadata !"_ZN11ap_int_baseILi2ELb0ELb1EE7rrotateEi", metadata !281, i32 1754, metadata !335, i1 false, i1 false, i32 0, i32 0, null, i32 256, i1 false, null, null, i32 0, metadata !158, i32 1754} ; [ DW_TAG_subprogram ]
!480 = metadata !{i32 786478, i32 0, metadata !280, metadata !"set_bit", metadata !"set_bit", metadata !"_ZN11ap_int_baseILi2ELb0ELb1EE7set_bitEib", metadata !281, i32 1762, metadata !476, i1 false, i1 false, i32 0, i32 0, null, i32 256, i1 false, null, null, i32 0, metadata !158, i32 1762} ; [ DW_TAG_subprogram ]
!481 = metadata !{i32 786478, i32 0, metadata !280, metadata !"get_bit", metadata !"get_bit", metadata !"_ZNK11ap_int_baseILi2ELb0ELb1EE7get_bitEi", metadata !281, i32 1767, metadata !472, i1 false, i1 false, i32 0, i32 0, null, i32 256, i1 false, null, null, i32 0, metadata !158, i32 1767} ; [ DW_TAG_subprogram ]
!482 = metadata !{i32 786478, i32 0, metadata !280, metadata !"b_not", metadata !"b_not", metadata !"_ZN11ap_int_baseILi2ELb0ELb1EE5b_notEv", metadata !281, i32 1772, metadata !298, i1 false, i1 false, i32 0, i32 0, null, i32 256, i1 false, null, null, i32 0, metadata !158, i32 1772} ; [ DW_TAG_subprogram ]
!483 = metadata !{i32 786478, i32 0, metadata !280, metadata !"countLeadingZeros", metadata !"countLeadingZeros", metadata !"_ZN11ap_int_baseILi2ELb0ELb1EE17countLeadingZerosEv", metadata !281, i32 1779, metadata !484, i1 false, i1 false, i32 0, i32 0, null, i32 256, i1 false, null, null, i32 0, metadata !158, i32 1779} ; [ DW_TAG_subprogram ]
!484 = metadata !{i32 786453, i32 0, metadata !"", i32 0, i32 0, i64 0, i64 0, i64 0, i32 0, null, metadata !485, i32 0, i32 0} ; [ DW_TAG_subroutine_type ]
!485 = metadata !{metadata !295, metadata !300}
!486 = metadata !{i32 786478, i32 0, metadata !280, metadata !"operator++", metadata !"operator++", metadata !"_ZN11ap_int_baseILi2ELb0ELb1EEppEv", metadata !281, i32 1836, metadata !464, i1 false, i1 false, i32 0, i32 0, null, i32 256, i1 false, null, null, i32 0, metadata !158, i32 1836} ; [ DW_TAG_subprogram ]
!487 = metadata !{i32 786478, i32 0, metadata !280, metadata !"operator--", metadata !"operator--", metadata !"_ZN11ap_int_baseILi2ELb0ELb1EEmmEv", metadata !281, i32 1840, metadata !464, i1 false, i1 false, i32 0, i32 0, null, i32 256, i1 false, null, null, i32 0, metadata !158, i32 1840} ; [ DW_TAG_subprogram ]
!488 = metadata !{i32 786478, i32 0, metadata !280, metadata !"operator++", metadata !"operator++", metadata !"_ZN11ap_int_baseILi2ELb0ELb1EEppEi", metadata !281, i32 1848, metadata !489, i1 false, i1 false, i32 0, i32 0, null, i32 256, i1 false, null, null, i32 0, metadata !158, i32 1848} ; [ DW_TAG_subprogram ]
!489 = metadata !{i32 786453, i32 0, metadata !"", i32 0, i32 0, i64 0, i64 0, i64 0, i32 0, null, metadata !490, i32 0, i32 0} ; [ DW_TAG_subroutine_type ]
!490 = metadata !{metadata !305, metadata !300, metadata !295}
!491 = metadata !{i32 786478, i32 0, metadata !280, metadata !"operator--", metadata !"operator--", metadata !"_ZN11ap_int_baseILi2ELb0ELb1EEmmEi", metadata !281, i32 1853, metadata !489, i1 false, i1 false, i32 0, i32 0, null, i32 256, i1 false, null, null, i32 0, metadata !158, i32 1853} ; [ DW_TAG_subprogram ]
!492 = metadata !{i32 786478, i32 0, metadata !280, metadata !"operator+", metadata !"operator+", metadata !"_ZNK11ap_int_baseILi2ELb0ELb1EEpsEv", metadata !281, i32 1862, metadata !493, i1 false, i1 false, i32 0, i32 0, null, i32 256, i1 false, null, null, i32 0, metadata !158, i32 1862} ; [ DW_TAG_subprogram ]
!493 = metadata !{i32 786453, i32 0, metadata !"", i32 0, i32 0, i64 0, i64 0, i64 0, i32 0, null, metadata !494, i32 0, i32 0} ; [ DW_TAG_subroutine_type ]
!494 = metadata !{metadata !280, metadata !429}
!495 = metadata !{i32 786478, i32 0, metadata !280, metadata !"operator!", metadata !"operator!", metadata !"_ZNK11ap_int_baseILi2ELb0ELb1EEntEv", metadata !281, i32 1868, metadata !431, i1 false, i1 false, i32 0, i32 0, null, i32 256, i1 false, null, null, i32 0, metadata !158, i32 1868} ; [ DW_TAG_subprogram ]
!496 = metadata !{i32 786478, i32 0, metadata !280, metadata !"operator-", metadata !"operator-", metadata !"_ZNK11ap_int_baseILi2ELb0ELb1EEngEv", metadata !281, i32 1873, metadata !497, i1 false, i1 false, i32 0, i32 0, null, i32 256, i1 false, null, null, i32 0, metadata !158, i32 1873} ; [ DW_TAG_subprogram ]
!497 = metadata !{i32 786453, i32 0, metadata !"", i32 0, i32 0, i64 0, i64 0, i64 0, i32 0, null, metadata !498, i32 0, i32 0} ; [ DW_TAG_subroutine_type ]
!498 = metadata !{metadata !499, metadata !429}
!499 = metadata !{i32 786434, null, metadata !"ap_int_base<3, true, true>", metadata !281, i32 648, i32 0, i32 0, i32 0, i32 4, null, null, i32 0} ; [ DW_TAG_class_type ]
!500 = metadata !{i32 786478, i32 0, metadata !280, metadata !"range", metadata !"range", metadata !"_ZN11ap_int_baseILi2ELb0ELb1EE5rangeEii", metadata !281, i32 2003, metadata !501, i1 false, i1 false, i32 0, i32 0, null, i32 256, i1 false, null, null, i32 0, metadata !158, i32 2003} ; [ DW_TAG_subprogram ]
!501 = metadata !{i32 786453, i32 0, metadata !"", i32 0, i32 0, i64 0, i64 0, i64 0, i32 0, null, metadata !502, i32 0, i32 0} ; [ DW_TAG_subroutine_type ]
!502 = metadata !{metadata !503, metadata !300, metadata !295, metadata !295}
!503 = metadata !{i32 786434, null, metadata !"ap_range_ref<2, false>", metadata !281, i32 919, i32 0, i32 0, i32 0, i32 4, null, null, i32 0} ; [ DW_TAG_class_type ]
!504 = metadata !{i32 786478, i32 0, metadata !280, metadata !"operator()", metadata !"operator()", metadata !"_ZN11ap_int_baseILi2ELb0ELb1EEclEii", metadata !281, i32 2009, metadata !501, i1 false, i1 false, i32 0, i32 0, null, i32 256, i1 false, null, null, i32 0, metadata !158, i32 2009} ; [ DW_TAG_subprogram ]
!505 = metadata !{i32 786478, i32 0, metadata !280, metadata !"range", metadata !"range", metadata !"_ZNK11ap_int_baseILi2ELb0ELb1EE5rangeEii", metadata !281, i32 2015, metadata !506, i1 false, i1 false, i32 0, i32 0, null, i32 256, i1 false, null, null, i32 0, metadata !158, i32 2015} ; [ DW_TAG_subprogram ]
!506 = metadata !{i32 786453, i32 0, metadata !"", i32 0, i32 0, i64 0, i64 0, i64 0, i32 0, null, metadata !507, i32 0, i32 0} ; [ DW_TAG_subroutine_type ]
!507 = metadata !{metadata !503, metadata !429, metadata !295, metadata !295}
!508 = metadata !{i32 786478, i32 0, metadata !280, metadata !"operator()", metadata !"operator()", metadata !"_ZNK11ap_int_baseILi2ELb0ELb1EEclEii", metadata !281, i32 2021, metadata !506, i1 false, i1 false, i32 0, i32 0, null, i32 256, i1 false, null, null, i32 0, metadata !158, i32 2021} ; [ DW_TAG_subprogram ]
!509 = metadata !{i32 786478, i32 0, metadata !280, metadata !"operator[]", metadata !"operator[]", metadata !"_ZN11ap_int_baseILi2ELb0ELb1EEixEi", metadata !281, i32 2040, metadata !510, i1 false, i1 false, i32 0, i32 0, null, i32 256, i1 false, null, null, i32 0, metadata !158, i32 2040} ; [ DW_TAG_subprogram ]
!510 = metadata !{i32 786453, i32 0, metadata !"", i32 0, i32 0, i64 0, i64 0, i64 0, i32 0, null, metadata !511, i32 0, i32 0} ; [ DW_TAG_subroutine_type ]
!511 = metadata !{metadata !512, metadata !300, metadata !295}
!512 = metadata !{i32 786434, null, metadata !"ap_bit_ref<2, false>", metadata !281, i32 1186, i64 128, i64 64, i32 0, i32 0, null, metadata !513, i32 0, null, metadata !546} ; [ DW_TAG_class_type ]
!513 = metadata !{metadata !514, metadata !515, metadata !516, metadata !522, metadata !526, metadata !530, metadata !531, metadata !535, metadata !538, metadata !539, metadata !542, metadata !543}
!514 = metadata !{i32 786445, metadata !512, metadata !"d_bv", metadata !281, i32 1187, i64 64, i64 64, i64 0, i32 0, metadata !387} ; [ DW_TAG_member ]
!515 = metadata !{i32 786445, metadata !512, metadata !"d_index", metadata !281, i32 1188, i64 32, i64 32, i64 64, i32 0, metadata !295} ; [ DW_TAG_member ]
!516 = metadata !{i32 786478, i32 0, metadata !512, metadata !"ap_bit_ref", metadata !"ap_bit_ref", metadata !"", metadata !281, i32 1191, metadata !517, i1 false, i1 false, i32 0, i32 0, null, i32 256, i1 false, null, null, i32 0, metadata !158, i32 1191} ; [ DW_TAG_subprogram ]
!517 = metadata !{i32 786453, i32 0, metadata !"", i32 0, i32 0, i64 0, i64 0, i64 0, i32 0, null, metadata !518, i32 0, i32 0} ; [ DW_TAG_subroutine_type ]
!518 = metadata !{null, metadata !519, metadata !520}
!519 = metadata !{i32 786447, i32 0, metadata !"", i32 0, i32 0, i64 64, i64 64, i64 0, i32 64, metadata !512} ; [ DW_TAG_pointer_type ]
!520 = metadata !{i32 786448, null, null, null, i32 0, i64 0, i64 0, i64 0, i32 0, metadata !521} ; [ DW_TAG_reference_type ]
!521 = metadata !{i32 786470, null, metadata !"", null, i32 0, i64 0, i64 0, i64 0, i32 0, metadata !512} ; [ DW_TAG_const_type ]
!522 = metadata !{i32 786478, i32 0, metadata !512, metadata !"ap_bit_ref", metadata !"ap_bit_ref", metadata !"", metadata !281, i32 1194, metadata !523, i1 false, i1 false, i32 0, i32 0, null, i32 256, i1 false, null, null, i32 0, metadata !158, i32 1194} ; [ DW_TAG_subprogram ]
!523 = metadata !{i32 786453, i32 0, metadata !"", i32 0, i32 0, i64 0, i64 0, i64 0, i32 0, null, metadata !524, i32 0, i32 0} ; [ DW_TAG_subroutine_type ]
!524 = metadata !{null, metadata !519, metadata !525, metadata !295}
!525 = metadata !{i32 786447, null, metadata !"", null, i32 0, i64 64, i64 64, i64 0, i32 0, metadata !280} ; [ DW_TAG_pointer_type ]
!526 = metadata !{i32 786478, i32 0, metadata !512, metadata !"operator _Bool", metadata !"operator _Bool", metadata !"_ZNK10ap_bit_refILi2ELb0EEcvbEv", metadata !281, i32 1196, metadata !527, i1 false, i1 false, i32 0, i32 0, null, i32 256, i1 false, null, null, i32 0, metadata !158, i32 1196} ; [ DW_TAG_subprogram ]
!527 = metadata !{i32 786453, i32 0, metadata !"", i32 0, i32 0, i64 0, i64 0, i64 0, i32 0, null, metadata !528, i32 0, i32 0} ; [ DW_TAG_subroutine_type ]
!528 = metadata !{metadata !172, metadata !529}
!529 = metadata !{i32 786447, i32 0, metadata !"", i32 0, i32 0, i64 64, i64 64, i64 0, i32 64, metadata !521} ; [ DW_TAG_pointer_type ]
!530 = metadata !{i32 786478, i32 0, metadata !512, metadata !"to_bool", metadata !"to_bool", metadata !"_ZNK10ap_bit_refILi2ELb0EE7to_boolEv", metadata !281, i32 1197, metadata !527, i1 false, i1 false, i32 0, i32 0, null, i32 256, i1 false, null, null, i32 0, metadata !158, i32 1197} ; [ DW_TAG_subprogram ]
!531 = metadata !{i32 786478, i32 0, metadata !512, metadata !"operator=", metadata !"operator=", metadata !"_ZN10ap_bit_refILi2ELb0EEaSEy", metadata !281, i32 1199, metadata !532, i1 false, i1 false, i32 0, i32 0, null, i32 256, i1 false, null, null, i32 0, metadata !158, i32 1199} ; [ DW_TAG_subprogram ]
!532 = metadata !{i32 786453, i32 0, metadata !"", i32 0, i32 0, i64 0, i64 0, i64 0, i32 0, null, metadata !533, i32 0, i32 0} ; [ DW_TAG_subroutine_type ]
!533 = metadata !{metadata !534, metadata !519, metadata !358}
!534 = metadata !{i32 786448, null, null, null, i32 0, i64 0, i64 0, i64 0, i32 0, metadata !512} ; [ DW_TAG_reference_type ]
!535 = metadata !{i32 786478, i32 0, metadata !512, metadata !"operator=", metadata !"operator=", metadata !"_ZN10ap_bit_refILi2ELb0EEaSERKS0_", metadata !281, i32 1219, metadata !536, i1 false, i1 false, i32 0, i32 0, null, i32 256, i1 false, null, null, i32 0, metadata !158, i32 1219} ; [ DW_TAG_subprogram ]
!536 = metadata !{i32 786453, i32 0, metadata !"", i32 0, i32 0, i64 0, i64 0, i64 0, i32 0, null, metadata !537, i32 0, i32 0} ; [ DW_TAG_subroutine_type ]
!537 = metadata !{metadata !534, metadata !519, metadata !520}
!538 = metadata !{i32 786478, i32 0, metadata !512, metadata !"get", metadata !"get", metadata !"_ZNK10ap_bit_refILi2ELb0EE3getEv", metadata !281, i32 1327, metadata !527, i1 false, i1 false, i32 0, i32 0, null, i32 256, i1 false, null, null, i32 0, metadata !158, i32 1327} ; [ DW_TAG_subprogram ]
!539 = metadata !{i32 786478, i32 0, metadata !512, metadata !"get", metadata !"get", metadata !"_ZN10ap_bit_refILi2ELb0EE3getEv", metadata !281, i32 1331, metadata !540, i1 false, i1 false, i32 0, i32 0, null, i32 256, i1 false, null, null, i32 0, metadata !158, i32 1331} ; [ DW_TAG_subprogram ]
!540 = metadata !{i32 786453, i32 0, metadata !"", i32 0, i32 0, i64 0, i64 0, i64 0, i32 0, null, metadata !541, i32 0, i32 0} ; [ DW_TAG_subroutine_type ]
!541 = metadata !{metadata !172, metadata !519}
!542 = metadata !{i32 786478, i32 0, metadata !512, metadata !"operator~", metadata !"operator~", metadata !"_ZNK10ap_bit_refILi2ELb0EEcoEv", metadata !281, i32 1340, metadata !527, i1 false, i1 false, i32 0, i32 0, null, i32 256, i1 false, null, null, i32 0, metadata !158, i32 1340} ; [ DW_TAG_subprogram ]
!543 = metadata !{i32 786478, i32 0, metadata !512, metadata !"length", metadata !"length", metadata !"_ZNK10ap_bit_refILi2ELb0EE6lengthEv", metadata !281, i32 1345, metadata !544, i1 false, i1 false, i32 0, i32 0, null, i32 256, i1 false, null, null, i32 0, metadata !158, i32 1345} ; [ DW_TAG_subprogram ]
!544 = metadata !{i32 786453, i32 0, metadata !"", i32 0, i32 0, i64 0, i64 0, i64 0, i32 0, null, metadata !545, i32 0, i32 0} ; [ DW_TAG_subroutine_type ]
!545 = metadata !{metadata !295, metadata !529}
!546 = metadata !{metadata !547, metadata !296}
!547 = metadata !{i32 786480, null, metadata !"_AP_W", metadata !295, i64 2, null, i32 0, i32 0} ; [ DW_TAG_template_value_parameter ]
!548 = metadata !{i32 786478, i32 0, metadata !280, metadata !"operator[]", metadata !"operator[]", metadata !"_ZNK11ap_int_baseILi2ELb0ELb1EEixEi", metadata !281, i32 2054, metadata !472, i1 false, i1 false, i32 0, i32 0, null, i32 256, i1 false, null, null, i32 0, metadata !158, i32 2054} ; [ DW_TAG_subprogram ]
!549 = metadata !{i32 786478, i32 0, metadata !280, metadata !"bit", metadata !"bit", metadata !"_ZN11ap_int_baseILi2ELb0ELb1EE3bitEi", metadata !281, i32 2068, metadata !510, i1 false, i1 false, i32 0, i32 0, null, i32 256, i1 false, null, null, i32 0, metadata !158, i32 2068} ; [ DW_TAG_subprogram ]
!550 = metadata !{i32 786478, i32 0, metadata !280, metadata !"bit", metadata !"bit", metadata !"_ZNK11ap_int_baseILi2ELb0ELb1EE3bitEi", metadata !281, i32 2082, metadata !472, i1 false, i1 false, i32 0, i32 0, null, i32 256, i1 false, null, null, i32 0, metadata !158, i32 2082} ; [ DW_TAG_subprogram ]
!551 = metadata !{i32 786478, i32 0, metadata !280, metadata !"and_reduce", metadata !"and_reduce", metadata !"_ZN11ap_int_baseILi2ELb0ELb1EE10and_reduceEv", metadata !281, i32 2262, metadata !552, i1 false, i1 false, i32 0, i32 0, null, i32 256, i1 false, null, null, i32 0, metadata !158, i32 2262} ; [ DW_TAG_subprogram ]
!552 = metadata !{i32 786453, i32 0, metadata !"", i32 0, i32 0, i64 0, i64 0, i64 0, i32 0, null, metadata !553, i32 0, i32 0} ; [ DW_TAG_subroutine_type ]
!553 = metadata !{metadata !172, metadata !300}
!554 = metadata !{i32 786478, i32 0, metadata !280, metadata !"nand_reduce", metadata !"nand_reduce", metadata !"_ZN11ap_int_baseILi2ELb0ELb1EE11nand_reduceEv", metadata !281, i32 2265, metadata !552, i1 false, i1 false, i32 0, i32 0, null, i32 256, i1 false, null, null, i32 0, metadata !158, i32 2265} ; [ DW_TAG_subprogram ]
!555 = metadata !{i32 786478, i32 0, metadata !280, metadata !"or_reduce", metadata !"or_reduce", metadata !"_ZN11ap_int_baseILi2ELb0ELb1EE9or_reduceEv", metadata !281, i32 2268, metadata !552, i1 false, i1 false, i32 0, i32 0, null, i32 256, i1 false, null, null, i32 0, metadata !158, i32 2268} ; [ DW_TAG_subprogram ]
!556 = metadata !{i32 786478, i32 0, metadata !280, metadata !"nor_reduce", metadata !"nor_reduce", metadata !"_ZN11ap_int_baseILi2ELb0ELb1EE10nor_reduceEv", metadata !281, i32 2271, metadata !552, i1 false, i1 false, i32 0, i32 0, null, i32 256, i1 false, null, null, i32 0, metadata !158, i32 2271} ; [ DW_TAG_subprogram ]
!557 = metadata !{i32 786478, i32 0, metadata !280, metadata !"xor_reduce", metadata !"xor_reduce", metadata !"_ZN11ap_int_baseILi2ELb0ELb1EE10xor_reduceEv", metadata !281, i32 2274, metadata !552, i1 false, i1 false, i32 0, i32 0, null, i32 256, i1 false, null, null, i32 0, metadata !158, i32 2274} ; [ DW_TAG_subprogram ]
!558 = metadata !{i32 786478, i32 0, metadata !280, metadata !"xnor_reduce", metadata !"xnor_reduce", metadata !"_ZN11ap_int_baseILi2ELb0ELb1EE11xnor_reduceEv", metadata !281, i32 2277, metadata !552, i1 false, i1 false, i32 0, i32 0, null, i32 256, i1 false, null, null, i32 0, metadata !158, i32 2277} ; [ DW_TAG_subprogram ]
!559 = metadata !{i32 786478, i32 0, metadata !280, metadata !"and_reduce", metadata !"and_reduce", metadata !"_ZNK11ap_int_baseILi2ELb0ELb1EE10and_reduceEv", metadata !281, i32 2281, metadata !431, i1 false, i1 false, i32 0, i32 0, null, i32 256, i1 false, null, null, i32 0, metadata !158, i32 2281} ; [ DW_TAG_subprogram ]
!560 = metadata !{i32 786478, i32 0, metadata !280, metadata !"nand_reduce", metadata !"nand_reduce", metadata !"_ZNK11ap_int_baseILi2ELb0ELb1EE11nand_reduceEv", metadata !281, i32 2284, metadata !431, i1 false, i1 false, i32 0, i32 0, null, i32 256, i1 false, null, null, i32 0, metadata !158, i32 2284} ; [ DW_TAG_subprogram ]
!561 = metadata !{i32 786478, i32 0, metadata !280, metadata !"or_reduce", metadata !"or_reduce", metadata !"_ZNK11ap_int_baseILi2ELb0ELb1EE9or_reduceEv", metadata !281, i32 2287, metadata !431, i1 false, i1 false, i32 0, i32 0, null, i32 256, i1 false, null, null, i32 0, metadata !158, i32 2287} ; [ DW_TAG_subprogram ]
!562 = metadata !{i32 786478, i32 0, metadata !280, metadata !"nor_reduce", metadata !"nor_reduce", metadata !"_ZNK11ap_int_baseILi2ELb0ELb1EE10nor_reduceEv", metadata !281, i32 2290, metadata !431, i1 false, i1 false, i32 0, i32 0, null, i32 256, i1 false, null, null, i32 0, metadata !158, i32 2290} ; [ DW_TAG_subprogram ]
!563 = metadata !{i32 786478, i32 0, metadata !280, metadata !"xor_reduce", metadata !"xor_reduce", metadata !"_ZNK11ap_int_baseILi2ELb0ELb1EE10xor_reduceEv", metadata !281, i32 2293, metadata !431, i1 false, i1 false, i32 0, i32 0, null, i32 256, i1 false, null, null, i32 0, metadata !158, i32 2293} ; [ DW_TAG_subprogram ]
!564 = metadata !{i32 786478, i32 0, metadata !280, metadata !"xnor_reduce", metadata !"xnor_reduce", metadata !"_ZNK11ap_int_baseILi2ELb0ELb1EE11xnor_reduceEv", metadata !281, i32 2296, metadata !431, i1 false, i1 false, i32 0, i32 0, null, i32 256, i1 false, null, null, i32 0, metadata !158, i32 2296} ; [ DW_TAG_subprogram ]
!565 = metadata !{i32 786478, i32 0, metadata !280, metadata !"to_string", metadata !"to_string", metadata !"_ZNK11ap_int_baseILi2ELb0ELb1EE9to_stringEPci8BaseModeb", metadata !281, i32 2303, metadata !566, i1 false, i1 false, i32 0, i32 0, null, i32 256, i1 false, null, null, i32 0, metadata !158, i32 2303} ; [ DW_TAG_subprogram ]
!566 = metadata !{i32 786453, i32 0, metadata !"", i32 0, i32 0, i64 0, i64 0, i64 0, i32 0, null, metadata !567, i32 0, i32 0} ; [ DW_TAG_subroutine_type ]
!567 = metadata !{null, metadata !429, metadata !568, metadata !295, metadata !569, metadata !172}
!568 = metadata !{i32 786447, null, metadata !"", null, i32 0, i64 64, i64 64, i64 0, i32 0, metadata !203} ; [ DW_TAG_pointer_type ]
!569 = metadata !{i32 786436, null, metadata !"BaseMode", metadata !281, i32 601, i64 5, i64 8, i32 0, i32 0, null, metadata !570, i32 0, i32 0} ; [ DW_TAG_enumeration_type ]
!570 = metadata !{metadata !571, metadata !572, metadata !573, metadata !574}
!571 = metadata !{i32 786472, metadata !"SC_BIN", i64 2} ; [ DW_TAG_enumerator ]
!572 = metadata !{i32 786472, metadata !"SC_OCT", i64 8} ; [ DW_TAG_enumerator ]
!573 = metadata !{i32 786472, metadata !"SC_DEC", i64 10} ; [ DW_TAG_enumerator ]
!574 = metadata !{i32 786472, metadata !"SC_HEX", i64 16} ; [ DW_TAG_enumerator ]
!575 = metadata !{i32 786478, i32 0, metadata !280, metadata !"to_string", metadata !"to_string", metadata !"_ZNK11ap_int_baseILi2ELb0ELb1EE9to_stringE8BaseModeb", metadata !281, i32 2330, metadata !576, i1 false, i1 false, i32 0, i32 0, null, i32 256, i1 false, null, null, i32 0, metadata !158, i32 2330} ; [ DW_TAG_subprogram ]
!576 = metadata !{i32 786453, i32 0, metadata !"", i32 0, i32 0, i64 0, i64 0, i64 0, i32 0, null, metadata !577, i32 0, i32 0} ; [ DW_TAG_subroutine_type ]
!577 = metadata !{metadata !568, metadata !429, metadata !569, metadata !172}
!578 = metadata !{i32 786478, i32 0, metadata !280, metadata !"to_string", metadata !"to_string", metadata !"_ZNK11ap_int_baseILi2ELb0ELb1EE9to_stringEab", metadata !281, i32 2334, metadata !579, i1 false, i1 false, i32 0, i32 0, null, i32 256, i1 false, null, null, i32 0, metadata !158, i32 2334} ; [ DW_TAG_subprogram ]
!579 = metadata !{i32 786453, i32 0, metadata !"", i32 0, i32 0, i64 0, i64 0, i64 0, i32 0, null, metadata !580, i32 0, i32 0} ; [ DW_TAG_subroutine_type ]
!580 = metadata !{metadata !568, metadata !429, metadata !321, metadata !172}
!581 = metadata !{metadata !547, metadata !296, metadata !582}
!582 = metadata !{i32 786480, null, metadata !"_AP_C", metadata !172, i64 1, null, i32 0, i32 0} ; [ DW_TAG_template_value_parameter ]
!583 = metadata !{i32 786478, i32 0, metadata !274, metadata !"sc_uint", metadata !"sc_uint", metadata !"", metadata !277, i32 272, metadata !584, i1 false, i1 false, i32 0, i32 0, null, i32 256, i1 false, null, null, i32 0, metadata !158, i32 272} ; [ DW_TAG_subprogram ]
!584 = metadata !{i32 786453, i32 0, metadata !"", i32 0, i32 0, i64 0, i64 0, i64 0, i32 0, null, metadata !585, i32 0, i32 0} ; [ DW_TAG_subroutine_type ]
!585 = metadata !{null, metadata !586}
!586 = metadata !{i32 786447, i32 0, metadata !"", i32 0, i32 0, i64 64, i64 64, i64 0, i32 64, metadata !274} ; [ DW_TAG_pointer_type ]
!587 = metadata !{i32 786478, i32 0, metadata !274, metadata !"sc_uint", metadata !"sc_uint", metadata !"", metadata !277, i32 278, metadata !588, i1 false, i1 false, i32 0, i32 0, null, i32 256, i1 false, null, null, i32 0, metadata !158, i32 278} ; [ DW_TAG_subprogram ]
!588 = metadata !{i32 786453, i32 0, metadata !"", i32 0, i32 0, i64 0, i64 0, i64 0, i32 0, null, metadata !589, i32 0, i32 0} ; [ DW_TAG_subroutine_type ]
!589 = metadata !{null, metadata !586, metadata !590}
!590 = metadata !{i32 786448, null, null, null, i32 0, i64 0, i64 0, i64 0, i32 0, metadata !591} ; [ DW_TAG_reference_type ]
!591 = metadata !{i32 786470, null, metadata !"", null, i32 0, i64 0, i64 0, i64 0, i32 0, metadata !592} ; [ DW_TAG_const_type ]
!592 = metadata !{i32 786454, metadata !274, metadata !"sc_uint_base", metadata !277, i32 270, i64 0, i64 0, i64 0, i32 0, metadata !280} ; [ DW_TAG_typedef ]
!593 = metadata !{i32 786478, i32 0, metadata !274, metadata !"sc_uint", metadata !"sc_uint", metadata !"", metadata !277, i32 279, metadata !594, i1 false, i1 false, i32 0, i32 0, null, i32 256, i1 false, null, null, i32 0, metadata !158, i32 279} ; [ DW_TAG_subprogram ]
!594 = metadata !{i32 786453, i32 0, metadata !"", i32 0, i32 0, i64 0, i64 0, i64 0, i32 0, null, metadata !595, i32 0, i32 0} ; [ DW_TAG_subroutine_type ]
!595 = metadata !{null, metadata !586, metadata !596}
!596 = metadata !{i32 786448, null, null, null, i32 0, i64 0, i64 0, i64 0, i32 0, metadata !597} ; [ DW_TAG_reference_type ]
!597 = metadata !{i32 786485, null, metadata !"", null, i32 0, i64 0, i64 0, i64 0, i32 0, metadata !592} ; [ DW_TAG_volatile_type ]
!598 = metadata !{i32 786478, i32 0, metadata !274, metadata !"sc_uint<2, false>", metadata !"sc_uint<2, false>", metadata !"", metadata !277, i32 284, metadata !599, i1 false, i1 false, i32 0, i32 0, null, i32 256, i1 false, null, metadata !601, i32 0, metadata !158, i32 284} ; [ DW_TAG_subprogram ]
!599 = metadata !{i32 786453, i32 0, metadata !"", i32 0, i32 0, i64 0, i64 0, i64 0, i32 0, null, metadata !600, i32 0, i32 0} ; [ DW_TAG_subroutine_type ]
!600 = metadata !{null, metadata !586, metadata !304}
!601 = metadata !{metadata !602, metadata !603}
!602 = metadata !{i32 786480, null, metadata !"_SC_W2", metadata !295, i64 2, null, i32 0, i32 0} ; [ DW_TAG_template_value_parameter ]
!603 = metadata !{i32 786480, null, metadata !"_SC_S2", metadata !172, i64 0, null, i32 0, i32 0} ; [ DW_TAG_template_value_parameter ]
!604 = metadata !{i32 786478, i32 0, metadata !274, metadata !"sc_uint<false>", metadata !"sc_uint<false>", metadata !"", metadata !277, i32 287, metadata !605, i1 false, i1 false, i32 0, i32 0, null, i32 256, i1 false, null, metadata !607, i32 0, metadata !158, i32 287} ; [ DW_TAG_subprogram ]
!605 = metadata !{i32 786453, i32 0, metadata !"", i32 0, i32 0, i64 0, i64 0, i64 0, i32 0, null, metadata !606, i32 0, i32 0} ; [ DW_TAG_subroutine_type ]
!606 = metadata !{null, metadata !586, metadata !387}
!607 = metadata !{metadata !603}
!608 = metadata !{i32 786478, i32 0, metadata !274, metadata !"sc_uint<2>", metadata !"sc_uint<2>", metadata !"", metadata !277, i32 309, metadata !609, i1 false, i1 false, i32 0, i32 0, null, i32 256, i1 false, null, metadata !613, i32 0, metadata !158, i32 309} ; [ DW_TAG_subprogram ]
!609 = metadata !{i32 786453, i32 0, metadata !"", i32 0, i32 0, i64 0, i64 0, i64 0, i32 0, null, metadata !610, i32 0, i32 0} ; [ DW_TAG_subroutine_type ]
!610 = metadata !{null, metadata !586, metadata !611}
!611 = metadata !{i32 786448, null, null, null, i32 0, i64 0, i64 0, i64 0, i32 0, metadata !612} ; [ DW_TAG_reference_type ]
!612 = metadata !{i32 786470, null, metadata !"", null, i32 0, i64 0, i64 0, i64 0, i32 0, metadata !274} ; [ DW_TAG_const_type ]
!613 = metadata !{metadata !602}
!614 = metadata !{i32 786478, i32 0, metadata !274, metadata !"sc_uint", metadata !"sc_uint", metadata !"", metadata !277, i32 338, metadata !615, i1 false, i1 false, i32 0, i32 0, null, i32 256, i1 false, null, null, i32 0, metadata !158, i32 338} ; [ DW_TAG_subprogram ]
!615 = metadata !{i32 786453, i32 0, metadata !"", i32 0, i32 0, i64 0, i64 0, i64 0, i32 0, null, metadata !616, i32 0, i32 0} ; [ DW_TAG_subroutine_type ]
!616 = metadata !{null, metadata !586, metadata !172}
!617 = metadata !{i32 786478, i32 0, metadata !274, metadata !"sc_uint", metadata !"sc_uint", metadata !"", metadata !277, i32 339, metadata !618, i1 false, i1 false, i32 0, i32 0, null, i32 256, i1 false, null, null, i32 0, metadata !158, i32 339} ; [ DW_TAG_subprogram ]
!618 = metadata !{i32 786453, i32 0, metadata !"", i32 0, i32 0, i64 0, i64 0, i64 0, i32 0, null, metadata !619, i32 0, i32 0} ; [ DW_TAG_subroutine_type ]
!619 = metadata !{null, metadata !586, metadata !321}
!620 = metadata !{i32 786478, i32 0, metadata !274, metadata !"sc_uint", metadata !"sc_uint", metadata !"", metadata !277, i32 340, metadata !621, i1 false, i1 false, i32 0, i32 0, null, i32 256, i1 false, null, null, i32 0, metadata !158, i32 340} ; [ DW_TAG_subprogram ]
!621 = metadata !{i32 786453, i32 0, metadata !"", i32 0, i32 0, i64 0, i64 0, i64 0, i32 0, null, metadata !622, i32 0, i32 0} ; [ DW_TAG_subroutine_type ]
!622 = metadata !{null, metadata !586, metadata !325}
!623 = metadata !{i32 786478, i32 0, metadata !274, metadata !"sc_uint", metadata !"sc_uint", metadata !"", metadata !277, i32 341, metadata !624, i1 false, i1 false, i32 0, i32 0, null, i32 256, i1 false, null, null, i32 0, metadata !158, i32 341} ; [ DW_TAG_subprogram ]
!624 = metadata !{i32 786453, i32 0, metadata !"", i32 0, i32 0, i64 0, i64 0, i64 0, i32 0, null, metadata !625, i32 0, i32 0} ; [ DW_TAG_subroutine_type ]
!625 = metadata !{null, metadata !586, metadata !329}
!626 = metadata !{i32 786478, i32 0, metadata !274, metadata !"sc_uint", metadata !"sc_uint", metadata !"", metadata !277, i32 342, metadata !627, i1 false, i1 false, i32 0, i32 0, null, i32 256, i1 false, null, null, i32 0, metadata !158, i32 342} ; [ DW_TAG_subprogram ]
!627 = metadata !{i32 786453, i32 0, metadata !"", i32 0, i32 0, i64 0, i64 0, i64 0, i32 0, null, metadata !628, i32 0, i32 0} ; [ DW_TAG_subroutine_type ]
!628 = metadata !{null, metadata !586, metadata !333}
!629 = metadata !{i32 786478, i32 0, metadata !274, metadata !"sc_uint", metadata !"sc_uint", metadata !"", metadata !277, i32 343, metadata !630, i1 false, i1 false, i32 0, i32 0, null, i32 256, i1 false, null, null, i32 0, metadata !158, i32 343} ; [ DW_TAG_subprogram ]
!630 = metadata !{i32 786453, i32 0, metadata !"", i32 0, i32 0, i64 0, i64 0, i64 0, i32 0, null, metadata !631, i32 0, i32 0} ; [ DW_TAG_subroutine_type ]
!631 = metadata !{null, metadata !586, metadata !295}
!632 = metadata !{i32 786478, i32 0, metadata !274, metadata !"sc_uint", metadata !"sc_uint", metadata !"", metadata !277, i32 344, metadata !633, i1 false, i1 false, i32 0, i32 0, null, i32 256, i1 false, null, null, i32 0, metadata !158, i32 344} ; [ DW_TAG_subprogram ]
!633 = metadata !{i32 786453, i32 0, metadata !"", i32 0, i32 0, i64 0, i64 0, i64 0, i32 0, null, metadata !634, i32 0, i32 0} ; [ DW_TAG_subroutine_type ]
!634 = metadata !{null, metadata !586, metadata !340}
!635 = metadata !{i32 786478, i32 0, metadata !274, metadata !"sc_uint", metadata !"sc_uint", metadata !"", metadata !277, i32 345, metadata !636, i1 false, i1 false, i32 0, i32 0, null, i32 256, i1 false, null, null, i32 0, metadata !158, i32 345} ; [ DW_TAG_subprogram ]
!636 = metadata !{i32 786453, i32 0, metadata !"", i32 0, i32 0, i64 0, i64 0, i64 0, i32 0, null, metadata !637, i32 0, i32 0} ; [ DW_TAG_subroutine_type ]
!637 = metadata !{null, metadata !586, metadata !344}
!638 = metadata !{i32 786478, i32 0, metadata !274, metadata !"sc_uint", metadata !"sc_uint", metadata !"", metadata !277, i32 346, metadata !639, i1 false, i1 false, i32 0, i32 0, null, i32 256, i1 false, null, null, i32 0, metadata !158, i32 346} ; [ DW_TAG_subprogram ]
!639 = metadata !{i32 786453, i32 0, metadata !"", i32 0, i32 0, i64 0, i64 0, i64 0, i32 0, null, metadata !640, i32 0, i32 0} ; [ DW_TAG_subroutine_type ]
!640 = metadata !{null, metadata !586, metadata !348}
!641 = metadata !{i32 786478, i32 0, metadata !274, metadata !"sc_uint", metadata !"sc_uint", metadata !"", metadata !277, i32 347, metadata !642, i1 false, i1 false, i32 0, i32 0, null, i32 256, i1 false, null, null, i32 0, metadata !158, i32 347} ; [ DW_TAG_subprogram ]
!642 = metadata !{i32 786453, i32 0, metadata !"", i32 0, i32 0, i64 0, i64 0, i64 0, i32 0, null, metadata !643, i32 0, i32 0} ; [ DW_TAG_subroutine_type ]
!643 = metadata !{null, metadata !586, metadata !352}
!644 = metadata !{i32 786478, i32 0, metadata !274, metadata !"sc_uint", metadata !"sc_uint", metadata !"", metadata !277, i32 348, metadata !645, i1 false, i1 false, i32 0, i32 0, null, i32 256, i1 false, null, null, i32 0, metadata !158, i32 348} ; [ DW_TAG_subprogram ]
!645 = metadata !{i32 786453, i32 0, metadata !"", i32 0, i32 0, i64 0, i64 0, i64 0, i32 0, null, metadata !646, i32 0, i32 0} ; [ DW_TAG_subroutine_type ]
!646 = metadata !{null, metadata !586, metadata !357}
!647 = metadata !{i32 786478, i32 0, metadata !274, metadata !"sc_uint", metadata !"sc_uint", metadata !"", metadata !277, i32 349, metadata !648, i1 false, i1 false, i32 0, i32 0, null, i32 256, i1 false, null, null, i32 0, metadata !158, i32 349} ; [ DW_TAG_subprogram ]
!648 = metadata !{i32 786453, i32 0, metadata !"", i32 0, i32 0, i64 0, i64 0, i64 0, i32 0, null, metadata !649, i32 0, i32 0} ; [ DW_TAG_subroutine_type ]
!649 = metadata !{null, metadata !586, metadata !366}
!650 = metadata !{i32 786478, i32 0, metadata !274, metadata !"sc_uint", metadata !"sc_uint", metadata !"", metadata !277, i32 350, metadata !651, i1 false, i1 false, i32 0, i32 0, null, i32 256, i1 false, null, null, i32 0, metadata !158, i32 350} ; [ DW_TAG_subprogram ]
!651 = metadata !{i32 786453, i32 0, metadata !"", i32 0, i32 0, i64 0, i64 0, i64 0, i32 0, null, metadata !652, i32 0, i32 0} ; [ DW_TAG_subroutine_type ]
!652 = metadata !{null, metadata !586, metadata !201}
!653 = metadata !{i32 786478, i32 0, metadata !274, metadata !"operator=", metadata !"operator=", metadata !"_ZNV7_ap_sc_5sc_dt7sc_uintILi2EEaSERKS2_", metadata !277, i32 364, metadata !654, i1 false, i1 false, i32 0, i32 0, null, i32 256, i1 false, null, null, i32 0, metadata !158, i32 364} ; [ DW_TAG_subprogram ]
!654 = metadata !{i32 786453, i32 0, metadata !"", i32 0, i32 0, i64 0, i64 0, i64 0, i32 0, null, metadata !655, i32 0, i32 0} ; [ DW_TAG_subroutine_type ]
!655 = metadata !{null, metadata !656, metadata !611}
!656 = metadata !{i32 786447, i32 0, metadata !"", i32 0, i32 0, i64 64, i64 64, i64 0, i32 64, metadata !273} ; [ DW_TAG_pointer_type ]
!657 = metadata !{i32 786478, i32 0, metadata !274, metadata !"operator=", metadata !"operator=", metadata !"_ZNV7_ap_sc_5sc_dt7sc_uintILi2EEaSERVKS2_", metadata !277, i32 367, metadata !658, i1 false, i1 false, i32 0, i32 0, null, i32 256, i1 false, null, null, i32 0, metadata !158, i32 367} ; [ DW_TAG_subprogram ]
!658 = metadata !{i32 786453, i32 0, metadata !"", i32 0, i32 0, i64 0, i64 0, i64 0, i32 0, null, metadata !659, i32 0, i32 0} ; [ DW_TAG_subroutine_type ]
!659 = metadata !{null, metadata !656, metadata !660}
!660 = metadata !{i32 786448, null, null, null, i32 0, i64 0, i64 0, i64 0, i32 0, metadata !661} ; [ DW_TAG_reference_type ]
!661 = metadata !{i32 786470, null, metadata !"", null, i32 0, i64 0, i64 0, i64 0, i32 0, metadata !273} ; [ DW_TAG_const_type ]
!662 = metadata !{i32 786478, i32 0, metadata !274, metadata !"operator=", metadata !"operator=", metadata !"_ZN7_ap_sc_5sc_dt7sc_uintILi2EEaSERVKS2_", metadata !277, i32 373, metadata !663, i1 false, i1 false, i32 0, i32 0, null, i32 256, i1 false, null, null, i32 0, metadata !158, i32 373} ; [ DW_TAG_subprogram ]
!663 = metadata !{i32 786453, i32 0, metadata !"", i32 0, i32 0, i64 0, i64 0, i64 0, i32 0, null, metadata !664, i32 0, i32 0} ; [ DW_TAG_subroutine_type ]
!664 = metadata !{metadata !665, metadata !586, metadata !660}
!665 = metadata !{i32 786448, null, null, null, i32 0, i64 0, i64 0, i64 0, i32 0, metadata !274} ; [ DW_TAG_reference_type ]
!666 = metadata !{i32 786478, i32 0, metadata !274, metadata !"operator=", metadata !"operator=", metadata !"_ZN7_ap_sc_5sc_dt7sc_uintILi2EEaSERKS2_", metadata !277, i32 377, metadata !667, i1 false, i1 false, i32 0, i32 0, null, i32 256, i1 false, null, null, i32 0, metadata !158, i32 377} ; [ DW_TAG_subprogram ]
!667 = metadata !{i32 786453, i32 0, metadata !"", i32 0, i32 0, i64 0, i64 0, i64 0, i32 0, null, metadata !668, i32 0, i32 0} ; [ DW_TAG_subroutine_type ]
!668 = metadata !{metadata !665, metadata !586, metadata !611}
!669 = metadata !{i32 786478, i32 0, metadata !274, metadata !"~sc_uint", metadata !"~sc_uint", metadata !"", metadata !277, i32 269, metadata !584, i1 false, i1 false, i32 0, i32 0, null, i32 320, i1 false, null, null, i32 0, metadata !158, i32 269} ; [ DW_TAG_subprogram ]
!670 = metadata !{metadata !671}
!671 = metadata !{i32 786480, null, metadata !"_SC_W", metadata !295, i64 2, null, i32 0, i32 0} ; [ DW_TAG_template_value_parameter ]
!672 = metadata !{i32 786478, i32 0, metadata !269, metadata !"sc_signal_in_if", metadata !"sc_signal_in_if", metadata !"", metadata !146, i32 176, metadata !673, i1 false, i1 false, i32 0, i32 0, null, i32 256, i1 false, null, null, i32 0, metadata !158, i32 176} ; [ DW_TAG_subprogram ]
!673 = metadata !{i32 786453, i32 0, metadata !"", i32 0, i32 0, i64 0, i64 0, i64 0, i32 0, null, metadata !674, i32 0, i32 0} ; [ DW_TAG_subroutine_type ]
!674 = metadata !{null, metadata !675}
!675 = metadata !{i32 786447, i32 0, metadata !"", i32 0, i32 0, i64 64, i64 64, i64 0, i32 64, metadata !269} ; [ DW_TAG_pointer_type ]
!676 = metadata !{i32 786478, i32 0, metadata !269, metadata !"read", metadata !"read", metadata !"_ZN7_ap_sc_7sc_core15sc_signal_in_ifINS_5sc_dt7sc_uintILi2EEEE4readEv", metadata !146, i32 180, metadata !677, i1 false, i1 false, i32 0, i32 0, null, i32 256, i1 false, null, null, i32 0, metadata !158, i32 180} ; [ DW_TAG_subprogram ]
!677 = metadata !{i32 786453, i32 0, metadata !"", i32 0, i32 0, i64 0, i64 0, i64 0, i32 0, null, metadata !678, i32 0, i32 0} ; [ DW_TAG_subroutine_type ]
!678 = metadata !{metadata !274, metadata !675}
!679 = metadata !{i32 786478, i32 0, metadata !269, metadata !"read", metadata !"read", metadata !"_ZNK7_ap_sc_7sc_core15sc_signal_in_ifINS_5sc_dt7sc_uintILi2EEEE4readEv", metadata !146, i32 181, metadata !680, i1 false, i1 false, i32 0, i32 0, null, i32 256, i1 false, null, null, i32 0, metadata !158, i32 181} ; [ DW_TAG_subprogram ]
!680 = metadata !{i32 786453, i32 0, metadata !"", i32 0, i32 0, i64 0, i64 0, i64 0, i32 0, null, metadata !681, i32 0, i32 0} ; [ DW_TAG_subroutine_type ]
!681 = metadata !{metadata !274, metadata !682}
!682 = metadata !{i32 786447, i32 0, metadata !"", i32 0, i32 0, i64 64, i64 64, i64 0, i32 64, metadata !683} ; [ DW_TAG_pointer_type ]
!683 = metadata !{i32 786470, null, metadata !"", null, i32 0, i64 0, i64 0, i64 0, i32 0, metadata !269} ; [ DW_TAG_const_type ]
!684 = metadata !{i32 786478, i32 0, metadata !269, metadata !"operator sc_uint", metadata !"operator sc_uint", metadata !"_ZN7_ap_sc_7sc_core15sc_signal_in_ifINS_5sc_dt7sc_uintILi2EEEEcvKS4_Ev", metadata !146, i32 187, metadata !685, i1 false, i1 false, i32 0, i32 0, null, i32 256, i1 false, null, null, i32 0, metadata !158, i32 187} ; [ DW_TAG_subprogram ]
!685 = metadata !{i32 786453, i32 0, metadata !"", i32 0, i32 0, i64 0, i64 0, i64 0, i32 0, null, metadata !686, i32 0, i32 0} ; [ DW_TAG_subroutine_type ]
!686 = metadata !{metadata !612, metadata !675}
!687 = metadata !{i32 786478, i32 0, metadata !269, metadata !"operator sc_uint", metadata !"operator sc_uint", metadata !"_ZNK7_ap_sc_7sc_core15sc_signal_in_ifINS_5sc_dt7sc_uintILi2EEEEcvKS4_Ev", metadata !146, i32 188, metadata !688, i1 false, i1 false, i32 0, i32 0, null, i32 256, i1 false, null, null, i32 0, metadata !158, i32 188} ; [ DW_TAG_subprogram ]
!688 = metadata !{i32 786453, i32 0, metadata !"", i32 0, i32 0, i64 0, i64 0, i64 0, i32 0, null, metadata !689, i32 0, i32 0} ; [ DW_TAG_subroutine_type ]
!689 = metadata !{metadata !612, metadata !682}
!690 = metadata !{metadata !691}
!691 = metadata !{i32 786479, null, metadata !"T", metadata !274, null, i32 0, i32 0} ; [ DW_TAG_template_type_parameter ]
!692 = metadata !{i32 786478, i32 0, metadata !265, metadata !"sc_port_b", metadata !"sc_port_b", metadata !"", metadata !146, i32 285, metadata !693, i1 false, i1 false, i32 0, i32 0, null, i32 256, i1 false, null, null, i32 0, metadata !158, i32 285} ; [ DW_TAG_subprogram ]
!693 = metadata !{i32 786453, i32 0, metadata !"", i32 0, i32 0, i64 0, i64 0, i64 0, i32 0, null, metadata !694, i32 0, i32 0} ; [ DW_TAG_subroutine_type ]
!694 = metadata !{null, metadata !695}
!695 = metadata !{i32 786447, i32 0, metadata !"", i32 0, i32 0, i64 64, i64 64, i64 0, i32 64, metadata !265} ; [ DW_TAG_pointer_type ]
!696 = metadata !{i32 786478, i32 0, metadata !265, metadata !"sc_port_b", metadata !"sc_port_b", metadata !"", metadata !146, i32 286, metadata !697, i1 false, i1 false, i32 0, i32 0, null, i32 384, i1 false, null, null, i32 0, metadata !158, i32 286} ; [ DW_TAG_subprogram ]
!697 = metadata !{i32 786453, i32 0, metadata !"", i32 0, i32 0, i64 0, i64 0, i64 0, i32 0, null, metadata !698, i32 0, i32 0} ; [ DW_TAG_subroutine_type ]
!698 = metadata !{null, metadata !695, metadata !201}
!699 = metadata !{i32 786478, i32 0, metadata !265, metadata !"bind", metadata !"bind", metadata !"_ZN7_ap_sc_7sc_core9sc_port_bINS0_15sc_signal_in_ifINS_5sc_dt7sc_uintILi2EEEEEE4bindERS6_", metadata !146, i32 290, metadata !700, i1 false, i1 false, i32 0, i32 0, null, i32 256, i1 false, null, null, i32 0, metadata !158, i32 290} ; [ DW_TAG_subprogram ]
!700 = metadata !{i32 786453, i32 0, metadata !"", i32 0, i32 0, i64 0, i64 0, i64 0, i32 0, null, metadata !701, i32 0, i32 0} ; [ DW_TAG_subroutine_type ]
!701 = metadata !{null, metadata !695, metadata !702}
!702 = metadata !{i32 786448, null, null, null, i32 0, i64 0, i64 0, i64 0, i32 0, metadata !269} ; [ DW_TAG_reference_type ]
!703 = metadata !{i32 786478, i32 0, metadata !265, metadata !"operator()", metadata !"operator()", metadata !"_ZN7_ap_sc_7sc_core9sc_port_bINS0_15sc_signal_in_ifINS_5sc_dt7sc_uintILi2EEEEEEclERS6_", metadata !146, i32 293, metadata !700, i1 false, i1 false, i32 0, i32 0, null, i32 256, i1 false, null, null, i32 0, metadata !158, i32 293} ; [ DW_TAG_subprogram ]
!704 = metadata !{i32 786478, i32 0, metadata !265, metadata !"bind", metadata !"bind", metadata !"_ZN7_ap_sc_7sc_core9sc_port_bINS0_15sc_signal_in_ifINS_5sc_dt7sc_uintILi2EEEEEE4bindERNS0_15sc_prim_channelE", metadata !146, i32 294, metadata !705, i1 false, i1 false, i32 0, i32 0, null, i32 256, i1 false, null, null, i32 0, metadata !158, i32 294} ; [ DW_TAG_subprogram ]
!705 = metadata !{i32 786453, i32 0, metadata !"", i32 0, i32 0, i64 0, i64 0, i64 0, i32 0, null, metadata !706, i32 0, i32 0} ; [ DW_TAG_subroutine_type ]
!706 = metadata !{null, metadata !695, metadata !212}
!707 = metadata !{i32 786478, i32 0, metadata !265, metadata !"operator()", metadata !"operator()", metadata !"_ZN7_ap_sc_7sc_core9sc_port_bINS0_15sc_signal_in_ifINS_5sc_dt7sc_uintILi2EEEEEEclERNS0_15sc_prim_channelE", metadata !146, i32 297, metadata !705, i1 false, i1 false, i32 0, i32 0, null, i32 256, i1 false, null, null, i32 0, metadata !158, i32 297} ; [ DW_TAG_subprogram ]
!708 = metadata !{i32 786478, i32 0, metadata !265, metadata !"bind", metadata !"bind", metadata !"_ZN7_ap_sc_7sc_core9sc_port_bINS0_15sc_signal_in_ifINS_5sc_dt7sc_uintILi2EEEEEE4bindERS7_", metadata !146, i32 298, metadata !709, i1 false, i1 false, i32 0, i32 0, null, i32 256, i1 false, null, null, i32 0, metadata !158, i32 298} ; [ DW_TAG_subprogram ]
!709 = metadata !{i32 786453, i32 0, metadata !"", i32 0, i32 0, i64 0, i64 0, i64 0, i32 0, null, metadata !710, i32 0, i32 0} ; [ DW_TAG_subroutine_type ]
!710 = metadata !{null, metadata !695, metadata !711}
!711 = metadata !{i32 786448, null, null, null, i32 0, i64 0, i64 0, i64 0, i32 0, metadata !265} ; [ DW_TAG_reference_type ]
!712 = metadata !{i32 786478, i32 0, metadata !265, metadata !"operator()", metadata !"operator()", metadata !"_ZN7_ap_sc_7sc_core9sc_port_bINS0_15sc_signal_in_ifINS_5sc_dt7sc_uintILi2EEEEEEclERS7_", metadata !146, i32 299, metadata !709, i1 false, i1 false, i32 0, i32 0, null, i32 256, i1 false, null, null, i32 0, metadata !158, i32 299} ; [ DW_TAG_subprogram ]
!713 = metadata !{i32 786478, i32 0, metadata !265, metadata !"operator->", metadata !"operator->", metadata !"_ZN7_ap_sc_7sc_core9sc_port_bINS0_15sc_signal_in_ifINS_5sc_dt7sc_uintILi2EEEEEEptEv", metadata !146, i32 301, metadata !714, i1 false, i1 false, i32 0, i32 0, null, i32 256, i1 false, null, null, i32 0, metadata !158, i32 301} ; [ DW_TAG_subprogram ]
!714 = metadata !{i32 786453, i32 0, metadata !"", i32 0, i32 0, i64 0, i64 0, i64 0, i32 0, null, metadata !715, i32 0, i32 0} ; [ DW_TAG_subroutine_type ]
!715 = metadata !{metadata !716, metadata !695}
!716 = metadata !{i32 786447, null, metadata !"", null, i32 0, i64 64, i64 64, i64 0, i32 0, metadata !269} ; [ DW_TAG_pointer_type ]
!717 = metadata !{metadata !718}
!718 = metadata !{i32 786479, null, metadata !"IF", metadata !269, null, i32 0, i32 0} ; [ DW_TAG_template_type_parameter ]
!719 = metadata !{i32 786478, i32 0, metadata !262, metadata !"sc_in", metadata !"sc_in", metadata !"", metadata !146, i32 347, metadata !720, i1 false, i1 false, i32 0, i32 0, null, i32 256, i1 false, null, null, i32 0, metadata !158, i32 347} ; [ DW_TAG_subprogram ]
!720 = metadata !{i32 786453, i32 0, metadata !"", i32 0, i32 0, i64 0, i64 0, i64 0, i32 0, null, metadata !721, i32 0, i32 0} ; [ DW_TAG_subroutine_type ]
!721 = metadata !{null, metadata !722}
!722 = metadata !{i32 786447, i32 0, metadata !"", i32 0, i32 0, i64 64, i64 64, i64 0, i32 64, metadata !262} ; [ DW_TAG_pointer_type ]
!723 = metadata !{i32 786478, i32 0, metadata !262, metadata !"sc_in", metadata !"sc_in", metadata !"", metadata !146, i32 348, metadata !724, i1 false, i1 false, i32 0, i32 0, null, i32 384, i1 false, null, null, i32 0, metadata !158, i32 348} ; [ DW_TAG_subprogram ]
!724 = metadata !{i32 786453, i32 0, metadata !"", i32 0, i32 0, i64 0, i64 0, i64 0, i32 0, null, metadata !725, i32 0, i32 0} ; [ DW_TAG_subroutine_type ]
!725 = metadata !{null, metadata !722, metadata !201}
!726 = metadata !{i32 786478, i32 0, metadata !262, metadata !"read", metadata !"read", metadata !"_ZN7_ap_sc_7sc_core5sc_inINS_5sc_dt7sc_uintILi2EEEE4readEv", metadata !146, i32 351, metadata !727, i1 false, i1 false, i32 0, i32 0, null, i32 256, i1 false, null, null, i32 0, metadata !158, i32 351} ; [ DW_TAG_subprogram ]
!727 = metadata !{i32 786453, i32 0, metadata !"", i32 0, i32 0, i64 0, i64 0, i64 0, i32 0, null, metadata !728, i32 0, i32 0} ; [ DW_TAG_subroutine_type ]
!728 = metadata !{metadata !729, metadata !722}
!729 = metadata !{i32 786454, metadata !262, metadata !"data_type", metadata !146, i32 344, i64 0, i64 0, i64 0, i32 0, metadata !274} ; [ DW_TAG_typedef ]
!730 = metadata !{i32 786478, i32 0, metadata !262, metadata !"read", metadata !"read", metadata !"_ZNK7_ap_sc_7sc_core5sc_inINS_5sc_dt7sc_uintILi2EEEE4readEv", metadata !146, i32 353, metadata !731, i1 false, i1 false, i32 0, i32 0, null, i32 256, i1 false, null, null, i32 0, metadata !158, i32 353} ; [ DW_TAG_subprogram ]
!731 = metadata !{i32 786453, i32 0, metadata !"", i32 0, i32 0, i64 0, i64 0, i64 0, i32 0, null, metadata !732, i32 0, i32 0} ; [ DW_TAG_subroutine_type ]
!732 = metadata !{metadata !733, metadata !734}
!733 = metadata !{i32 786470, null, metadata !"", null, i32 0, i64 0, i64 0, i64 0, i32 0, metadata !729} ; [ DW_TAG_const_type ]
!734 = metadata !{i32 786447, i32 0, metadata !"", i32 0, i32 0, i64 64, i64 64, i64 0, i32 64, metadata !735} ; [ DW_TAG_pointer_type ]
!735 = metadata !{i32 786470, null, metadata !"", null, i32 0, i64 0, i64 0, i64 0, i32 0, metadata !262} ; [ DW_TAG_const_type ]
!736 = metadata !{i32 786478, i32 0, metadata !262, metadata !"operator const struct _ap_sc_::sc_dt::sc_uint<2> &", metadata !"operator const struct _ap_sc_::sc_dt::sc_uint<2> &", metadata !"_ZNK7_ap_sc_7sc_core5sc_inINS_5sc_dt7sc_uintILi2EEEEcvRKS4_Ev", metadata !146, i32 355, metadata !737, i1 false, i1 false, i32 0, i32 0, null, i32 256, i1 false, null, null, i32 0, metadata !158, i32 355} ; [ DW_TAG_subprogram ]
!737 = metadata !{i32 786453, i32 0, metadata !"", i32 0, i32 0, i64 0, i64 0, i64 0, i32 0, null, metadata !738, i32 0, i32 0} ; [ DW_TAG_subroutine_type ]
!738 = metadata !{metadata !739, metadata !734}
!739 = metadata !{i32 786448, null, null, null, i32 0, i64 0, i64 0, i64 0, i32 0, metadata !733} ; [ DW_TAG_reference_type ]
!740 = metadata !{i32 786478, i32 0, metadata !262, metadata !"operator sc_uint", metadata !"operator sc_uint", metadata !"_ZN7_ap_sc_7sc_core5sc_inINS_5sc_dt7sc_uintILi2EEEEcvKS4_Ev", metadata !146, i32 358, metadata !741, i1 false, i1 false, i32 0, i32 0, null, i32 256, i1 false, null, null, i32 0, metadata !158, i32 358} ; [ DW_TAG_subprogram ]
!741 = metadata !{i32 786453, i32 0, metadata !"", i32 0, i32 0, i64 0, i64 0, i64 0, i32 0, null, metadata !742, i32 0, i32 0} ; [ DW_TAG_subroutine_type ]
!742 = metadata !{metadata !733, metadata !722}
!743 = metadata !{i32 786445, metadata !140, metadata !"out", metadata !136, i32 7, i64 8, i64 8, i64 40, i32 0, metadata !744} ; [ DW_TAG_member ]
!744 = metadata !{i32 786434, metadata !144, metadata !"sc_out<bool>", metadata !146, i32 440, i64 8, i64 8, i32 0, i32 0, null, metadata !745, i32 0, null, metadata !818} ; [ DW_TAG_class_type ]
!745 = metadata !{metadata !746, metadata !820, metadata !824}
!746 = metadata !{i32 786460, metadata !744, null, metadata !146, i32 0, i64 0, i64 0, i64 0, i32 0, metadata !747} ; [ DW_TAG_inheritance ]
!747 = metadata !{i32 786434, metadata !144, metadata !"sc_inout<bool>", metadata !146, i32 419, i64 8, i64 8, i32 0, i32 0, null, metadata !748, i32 0, null, metadata !818} ; [ DW_TAG_class_type ]
!748 = metadata !{metadata !749, metadata !793, metadata !797, metadata !800, metadata !804, metadata !808, metadata !815}
!749 = metadata !{i32 786460, metadata !747, null, metadata !146, i32 0, i64 0, i64 0, i64 0, i32 0, metadata !750} ; [ DW_TAG_inheritance ]
!750 = metadata !{i32 786434, metadata !144, metadata !"sc_port_b<_ap_sc_::sc_core::sc_signal_inout_if<bool> >", metadata !146, i32 281, i64 8, i64 8, i32 0, i32 0, null, metadata !751, i32 0, null, metadata !791} ; [ DW_TAG_class_type ]
!751 = metadata !{metadata !752, metadata !753, metadata !767, metadata !771, metadata !774, metadata !777, metadata !778, metadata !781, metadata !782, metadata !786, metadata !787}
!752 = metadata !{i32 786460, metadata !750, null, metadata !146, i32 0, i64 0, i64 0, i64 0, i32 0, metadata !152} ; [ DW_TAG_inheritance ]
!753 = metadata !{i32 786445, metadata !750, metadata !"m_if", metadata !146, i32 283, i64 8, i64 8, i64 0, i32 0, metadata !754} ; [ DW_TAG_member ]
!754 = metadata !{i32 786434, metadata !144, metadata !"sc_signal_inout_if<bool>", metadata !146, i32 193, i64 8, i64 8, i32 0, i32 0, null, metadata !755, i32 0, null, metadata !192} ; [ DW_TAG_class_type ]
!755 = metadata !{metadata !756, metadata !757, metadata !761}
!756 = metadata !{i32 786460, metadata !754, null, metadata !146, i32 0, i64 0, i64 0, i64 0, i32 0, metadata !161} ; [ DW_TAG_inheritance ]
!757 = metadata !{i32 786478, i32 0, metadata !754, metadata !"sc_signal_inout_if", metadata !"sc_signal_inout_if", metadata !"", metadata !146, i32 197, metadata !758, i1 false, i1 false, i32 0, i32 0, null, i32 256, i1 false, null, null, i32 0, metadata !158, i32 197} ; [ DW_TAG_subprogram ]
!758 = metadata !{i32 786453, i32 0, metadata !"", i32 0, i32 0, i64 0, i64 0, i64 0, i32 0, null, metadata !759, i32 0, i32 0} ; [ DW_TAG_subroutine_type ]
!759 = metadata !{null, metadata !760}
!760 = metadata !{i32 786447, i32 0, metadata !"", i32 0, i32 0, i64 64, i64 64, i64 0, i32 64, metadata !754} ; [ DW_TAG_pointer_type ]
!761 = metadata !{i32 786478, i32 0, metadata !754, metadata !"operator=", metadata !"operator=", metadata !"_ZN7_ap_sc_7sc_core18sc_signal_inout_ifIbEaSERKS2_", metadata !146, i32 199, metadata !762, i1 false, i1 false, i32 0, i32 0, null, i32 256, i1 false, null, null, i32 0, metadata !158, i32 199} ; [ DW_TAG_subprogram ]
!762 = metadata !{i32 786453, i32 0, metadata !"", i32 0, i32 0, i64 0, i64 0, i64 0, i32 0, null, metadata !763, i32 0, i32 0} ; [ DW_TAG_subroutine_type ]
!763 = metadata !{metadata !764, metadata !760, metadata !765}
!764 = metadata !{i32 786448, null, null, null, i32 0, i64 0, i64 0, i64 0, i32 0, metadata !754} ; [ DW_TAG_reference_type ]
!765 = metadata !{i32 786448, null, null, null, i32 0, i64 0, i64 0, i64 0, i32 0, metadata !766} ; [ DW_TAG_reference_type ]
!766 = metadata !{i32 786470, null, metadata !"", null, i32 0, i64 0, i64 0, i64 0, i32 0, metadata !754} ; [ DW_TAG_const_type ]
!767 = metadata !{i32 786478, i32 0, metadata !750, metadata !"sc_port_b", metadata !"sc_port_b", metadata !"", metadata !146, i32 285, metadata !768, i1 false, i1 false, i32 0, i32 0, null, i32 256, i1 false, null, null, i32 0, metadata !158, i32 285} ; [ DW_TAG_subprogram ]
!768 = metadata !{i32 786453, i32 0, metadata !"", i32 0, i32 0, i64 0, i64 0, i64 0, i32 0, null, metadata !769, i32 0, i32 0} ; [ DW_TAG_subroutine_type ]
!769 = metadata !{null, metadata !770}
!770 = metadata !{i32 786447, i32 0, metadata !"", i32 0, i32 0, i64 64, i64 64, i64 0, i32 64, metadata !750} ; [ DW_TAG_pointer_type ]
!771 = metadata !{i32 786478, i32 0, metadata !750, metadata !"sc_port_b", metadata !"sc_port_b", metadata !"", metadata !146, i32 286, metadata !772, i1 false, i1 false, i32 0, i32 0, null, i32 384, i1 false, null, null, i32 0, metadata !158, i32 286} ; [ DW_TAG_subprogram ]
!772 = metadata !{i32 786453, i32 0, metadata !"", i32 0, i32 0, i64 0, i64 0, i64 0, i32 0, null, metadata !773, i32 0, i32 0} ; [ DW_TAG_subroutine_type ]
!773 = metadata !{null, metadata !770, metadata !201}
!774 = metadata !{i32 786478, i32 0, metadata !750, metadata !"bind", metadata !"bind", metadata !"_ZN7_ap_sc_7sc_core9sc_port_bINS0_18sc_signal_inout_ifIbEEE4bindERS3_", metadata !146, i32 290, metadata !775, i1 false, i1 false, i32 0, i32 0, null, i32 256, i1 false, null, null, i32 0, metadata !158, i32 290} ; [ DW_TAG_subprogram ]
!775 = metadata !{i32 786453, i32 0, metadata !"", i32 0, i32 0, i64 0, i64 0, i64 0, i32 0, null, metadata !776, i32 0, i32 0} ; [ DW_TAG_subroutine_type ]
!776 = metadata !{null, metadata !770, metadata !764}
!777 = metadata !{i32 786478, i32 0, metadata !750, metadata !"operator()", metadata !"operator()", metadata !"_ZN7_ap_sc_7sc_core9sc_port_bINS0_18sc_signal_inout_ifIbEEEclERS3_", metadata !146, i32 293, metadata !775, i1 false, i1 false, i32 0, i32 0, null, i32 256, i1 false, null, null, i32 0, metadata !158, i32 293} ; [ DW_TAG_subprogram ]
!778 = metadata !{i32 786478, i32 0, metadata !750, metadata !"bind", metadata !"bind", metadata !"_ZN7_ap_sc_7sc_core9sc_port_bINS0_18sc_signal_inout_ifIbEEE4bindERNS0_15sc_prim_channelE", metadata !146, i32 294, metadata !779, i1 false, i1 false, i32 0, i32 0, null, i32 256, i1 false, null, null, i32 0, metadata !158, i32 294} ; [ DW_TAG_subprogram ]
!779 = metadata !{i32 786453, i32 0, metadata !"", i32 0, i32 0, i64 0, i64 0, i64 0, i32 0, null, metadata !780, i32 0, i32 0} ; [ DW_TAG_subroutine_type ]
!780 = metadata !{null, metadata !770, metadata !212}
!781 = metadata !{i32 786478, i32 0, metadata !750, metadata !"operator()", metadata !"operator()", metadata !"_ZN7_ap_sc_7sc_core9sc_port_bINS0_18sc_signal_inout_ifIbEEEclERNS0_15sc_prim_channelE", metadata !146, i32 297, metadata !779, i1 false, i1 false, i32 0, i32 0, null, i32 256, i1 false, null, null, i32 0, metadata !158, i32 297} ; [ DW_TAG_subprogram ]
!782 = metadata !{i32 786478, i32 0, metadata !750, metadata !"bind", metadata !"bind", metadata !"_ZN7_ap_sc_7sc_core9sc_port_bINS0_18sc_signal_inout_ifIbEEE4bindERS4_", metadata !146, i32 298, metadata !783, i1 false, i1 false, i32 0, i32 0, null, i32 256, i1 false, null, null, i32 0, metadata !158, i32 298} ; [ DW_TAG_subprogram ]
!783 = metadata !{i32 786453, i32 0, metadata !"", i32 0, i32 0, i64 0, i64 0, i64 0, i32 0, null, metadata !784, i32 0, i32 0} ; [ DW_TAG_subroutine_type ]
!784 = metadata !{null, metadata !770, metadata !785}
!785 = metadata !{i32 786448, null, null, null, i32 0, i64 0, i64 0, i64 0, i32 0, metadata !750} ; [ DW_TAG_reference_type ]
!786 = metadata !{i32 786478, i32 0, metadata !750, metadata !"operator()", metadata !"operator()", metadata !"_ZN7_ap_sc_7sc_core9sc_port_bINS0_18sc_signal_inout_ifIbEEEclERS4_", metadata !146, i32 299, metadata !783, i1 false, i1 false, i32 0, i32 0, null, i32 256, i1 false, null, null, i32 0, metadata !158, i32 299} ; [ DW_TAG_subprogram ]
!787 = metadata !{i32 786478, i32 0, metadata !750, metadata !"operator->", metadata !"operator->", metadata !"_ZN7_ap_sc_7sc_core9sc_port_bINS0_18sc_signal_inout_ifIbEEEptEv", metadata !146, i32 301, metadata !788, i1 false, i1 false, i32 0, i32 0, null, i32 256, i1 false, null, null, i32 0, metadata !158, i32 301} ; [ DW_TAG_subprogram ]
!788 = metadata !{i32 786453, i32 0, metadata !"", i32 0, i32 0, i64 0, i64 0, i64 0, i32 0, null, metadata !789, i32 0, i32 0} ; [ DW_TAG_subroutine_type ]
!789 = metadata !{metadata !790, metadata !770}
!790 = metadata !{i32 786447, null, metadata !"", null, i32 0, i64 64, i64 64, i64 0, i32 0, metadata !754} ; [ DW_TAG_pointer_type ]
!791 = metadata !{metadata !792}
!792 = metadata !{i32 786479, null, metadata !"IF", metadata !754, null, i32 0, i32 0} ; [ DW_TAG_template_type_parameter ]
!793 = metadata !{i32 786478, i32 0, metadata !747, metadata !"sc_inout", metadata !"sc_inout", metadata !"", metadata !146, i32 423, metadata !794, i1 false, i1 false, i32 0, i32 0, null, i32 256, i1 false, null, null, i32 0, metadata !158, i32 423} ; [ DW_TAG_subprogram ]
!794 = metadata !{i32 786453, i32 0, metadata !"", i32 0, i32 0, i64 0, i64 0, i64 0, i32 0, null, metadata !795, i32 0, i32 0} ; [ DW_TAG_subroutine_type ]
!795 = metadata !{null, metadata !796}
!796 = metadata !{i32 786447, i32 0, metadata !"", i32 0, i32 0, i64 64, i64 64, i64 0, i32 64, metadata !747} ; [ DW_TAG_pointer_type ]
!797 = metadata !{i32 786478, i32 0, metadata !747, metadata !"sc_inout", metadata !"sc_inout", metadata !"", metadata !146, i32 424, metadata !798, i1 false, i1 false, i32 0, i32 0, null, i32 384, i1 false, null, null, i32 0, metadata !158, i32 424} ; [ DW_TAG_subprogram ]
!798 = metadata !{i32 786453, i32 0, metadata !"", i32 0, i32 0, i64 0, i64 0, i64 0, i32 0, null, metadata !799, i32 0, i32 0} ; [ DW_TAG_subroutine_type ]
!799 = metadata !{null, metadata !796, metadata !201}
!800 = metadata !{i32 786478, i32 0, metadata !747, metadata !"write", metadata !"write", metadata !"_ZN7_ap_sc_7sc_core8sc_inoutIbE5writeERKb", metadata !146, i32 427, metadata !801, i1 false, i1 false, i32 0, i32 0, null, i32 256, i1 false, null, null, i32 0, metadata !158, i32 427} ; [ DW_TAG_subprogram ]
!801 = metadata !{i32 786453, i32 0, metadata !"", i32 0, i32 0, i64 0, i64 0, i64 0, i32 0, null, metadata !802, i32 0, i32 0} ; [ DW_TAG_subroutine_type ]
!802 = metadata !{null, metadata !796, metadata !803}
!803 = metadata !{i32 786448, null, null, null, i32 0, i64 0, i64 0, i64 0, i32 0, metadata !188} ; [ DW_TAG_reference_type ]
!804 = metadata !{i32 786478, i32 0, metadata !747, metadata !"read", metadata !"read", metadata !"_ZN7_ap_sc_7sc_core8sc_inoutIbE4readEv", metadata !146, i32 431, metadata !805, i1 false, i1 false, i32 0, i32 0, null, i32 256, i1 false, null, null, i32 0, metadata !158, i32 431} ; [ DW_TAG_subprogram ]
!805 = metadata !{i32 786453, i32 0, metadata !"", i32 0, i32 0, i64 0, i64 0, i64 0, i32 0, null, metadata !806, i32 0, i32 0} ; [ DW_TAG_subroutine_type ]
!806 = metadata !{metadata !807, metadata !796}
!807 = metadata !{i32 786454, metadata !747, metadata !"data_type", metadata !146, i32 421, i64 0, i64 0, i64 0, i32 0, metadata !172} ; [ DW_TAG_typedef ]
!808 = metadata !{i32 786478, i32 0, metadata !747, metadata !"operator const _Bool &", metadata !"operator const _Bool &", metadata !"_ZNK7_ap_sc_7sc_core8sc_inoutIbEcvRKbEv", metadata !146, i32 432, metadata !809, i1 false, i1 false, i32 0, i32 0, null, i32 256, i1 false, null, null, i32 0, metadata !158, i32 432} ; [ DW_TAG_subprogram ]
!809 = metadata !{i32 786453, i32 0, metadata !"", i32 0, i32 0, i64 0, i64 0, i64 0, i32 0, null, metadata !810, i32 0, i32 0} ; [ DW_TAG_subroutine_type ]
!810 = metadata !{metadata !811, metadata !813}
!811 = metadata !{i32 786448, null, null, null, i32 0, i64 0, i64 0, i64 0, i32 0, metadata !812} ; [ DW_TAG_reference_type ]
!812 = metadata !{i32 786470, null, metadata !"", null, i32 0, i64 0, i64 0, i64 0, i32 0, metadata !807} ; [ DW_TAG_const_type ]
!813 = metadata !{i32 786447, i32 0, metadata !"", i32 0, i32 0, i64 64, i64 64, i64 0, i32 64, metadata !814} ; [ DW_TAG_pointer_type ]
!814 = metadata !{i32 786470, null, metadata !"", null, i32 0, i64 0, i64 0, i64 0, i32 0, metadata !747} ; [ DW_TAG_const_type ]
!815 = metadata !{i32 786478, i32 0, metadata !747, metadata !"operator const _Bool", metadata !"operator const _Bool", metadata !"_ZN7_ap_sc_7sc_core8sc_inoutIbEcvKbEv", metadata !146, i32 435, metadata !816, i1 false, i1 false, i32 0, i32 0, null, i32 256, i1 false, null, null, i32 0, metadata !158, i32 435} ; [ DW_TAG_subprogram ]
!816 = metadata !{i32 786453, i32 0, metadata !"", i32 0, i32 0, i64 0, i64 0, i64 0, i32 0, null, metadata !817, i32 0, i32 0} ; [ DW_TAG_subroutine_type ]
!817 = metadata !{metadata !812, metadata !796}
!818 = metadata !{metadata !819}
!819 = metadata !{i32 786479, null, metadata !"_T", metadata !172, null, i32 0, i32 0} ; [ DW_TAG_template_type_parameter ]
!820 = metadata !{i32 786478, i32 0, metadata !744, metadata !"sc_out", metadata !"sc_out", metadata !"", metadata !146, i32 443, metadata !821, i1 false, i1 false, i32 0, i32 0, null, i32 256, i1 false, null, null, i32 0, metadata !158, i32 443} ; [ DW_TAG_subprogram ]
!821 = metadata !{i32 786453, i32 0, metadata !"", i32 0, i32 0, i64 0, i64 0, i64 0, i32 0, null, metadata !822, i32 0, i32 0} ; [ DW_TAG_subroutine_type ]
!822 = metadata !{null, metadata !823}
!823 = metadata !{i32 786447, i32 0, metadata !"", i32 0, i32 0, i64 64, i64 64, i64 0, i32 64, metadata !744} ; [ DW_TAG_pointer_type ]
!824 = metadata !{i32 786478, i32 0, metadata !744, metadata !"sc_out", metadata !"sc_out", metadata !"", metadata !146, i32 444, metadata !825, i1 false, i1 false, i32 0, i32 0, null, i32 384, i1 false, null, null, i32 0, metadata !158, i32 444} ; [ DW_TAG_subprogram ]
!825 = metadata !{i32 786453, i32 0, metadata !"", i32 0, i32 0, i64 0, i64 0, i64 0, i32 0, null, metadata !826, i32 0, i32 0} ; [ DW_TAG_subroutine_type ]
!826 = metadata !{null, metadata !823, metadata !201}
!827 = metadata !{i32 786478, i32 0, metadata !140, metadata !"process_mux", metadata !"process_mux", metadata !"_ZN8mux_4to111process_muxEv", metadata !136, i32 8, metadata !137, i1 false, i1 false, i32 0, i32 0, null, i32 256, i1 false, null, null, i32 0, metadata !158, i32 8} ; [ DW_TAG_subprogram ]
!828 = metadata !{i32 786478, i32 0, metadata !140, metadata !"mux_4to1", metadata !"mux_4to1", metadata !"", metadata !136, i32 17, metadata !829, i1 false, i1 false, i32 0, i32 0, null, i32 256, i1 false, null, null, i32 0, metadata !158, i32 17} ; [ DW_TAG_subprogram ]
!829 = metadata !{i32 786453, i32 0, metadata !"", i32 0, i32 0, i64 0, i64 0, i64 0, i32 0, null, metadata !830, i32 0, i32 0} ; [ DW_TAG_subroutine_type ]
!830 = metadata !{null, metadata !139, metadata !831}
!831 = metadata !{i32 786434, metadata !144, metadata !"sc_module_name", metadata !146, i32 591, i64 8, i64 8, i32 0, i32 0, null, metadata !832, i32 0, null, null} ; [ DW_TAG_class_type ]
!832 = metadata !{metadata !833, metadata !837, metadata !842}
!833 = metadata !{i32 786478, i32 0, metadata !831, metadata !"sc_module_name", metadata !"sc_module_name", metadata !"", metadata !146, i32 594, metadata !834, i1 false, i1 false, i32 0, i32 0, null, i32 256, i1 false, null, null, i32 0, metadata !158, i32 594} ; [ DW_TAG_subprogram ]
!834 = metadata !{i32 786453, i32 0, metadata !"", i32 0, i32 0, i64 0, i64 0, i64 0, i32 0, null, metadata !835, i32 0, i32 0} ; [ DW_TAG_subroutine_type ]
!835 = metadata !{null, metadata !836, metadata !201}
!836 = metadata !{i32 786447, i32 0, metadata !"", i32 0, i32 0, i64 64, i64 64, i64 0, i32 64, metadata !831} ; [ DW_TAG_pointer_type ]
!837 = metadata !{i32 786478, i32 0, metadata !831, metadata !"sc_module_name", metadata !"sc_module_name", metadata !"", metadata !146, i32 595, metadata !838, i1 false, i1 false, i32 0, i32 0, null, i32 256, i1 false, null, null, i32 0, metadata !158, i32 595} ; [ DW_TAG_subprogram ]
!838 = metadata !{i32 786453, i32 0, metadata !"", i32 0, i32 0, i64 0, i64 0, i64 0, i32 0, null, metadata !839, i32 0, i32 0} ; [ DW_TAG_subroutine_type ]
!839 = metadata !{null, metadata !836, metadata !840}
!840 = metadata !{i32 786448, null, null, null, i32 0, i64 0, i64 0, i64 0, i32 0, metadata !841} ; [ DW_TAG_reference_type ]
!841 = metadata !{i32 786470, null, metadata !"", null, i32 0, i64 0, i64 0, i64 0, i32 0, metadata !831} ; [ DW_TAG_const_type ]
!842 = metadata !{i32 786478, i32 0, metadata !831, metadata !"~sc_module_name", metadata !"~sc_module_name", metadata !"", metadata !146, i32 591, metadata !843, i1 false, i1 false, i32 0, i32 0, null, i32 320, i1 false, null, null, i32 0, metadata !158, i32 591} ; [ DW_TAG_subprogram ]
!843 = metadata !{i32 786453, i32 0, metadata !"", i32 0, i32 0, i64 0, i64 0, i64 0, i32 0, null, metadata !844, i32 0, i32 0} ; [ DW_TAG_subroutine_type ]
!844 = metadata !{null, metadata !836}
!845 = metadata !{i32 786447, null, metadata !"", null, i32 0, i64 64, i64 64, i64 0, i32 0, metadata !140} ; [ DW_TAG_pointer_type ]
!846 = metadata !{i32 786447, null, metadata !"", null, i32 0, i64 64, i64 64, i64 0, i32 0, metadata !847} ; [ DW_TAG_pointer_type ]
!847 = metadata !{i32 786438, null, metadata !"mux_4to1", metadata !136, i32 3, i64 8, i64 8, i32 0, i32 0, null, metadata !848, i32 0, null, null} ; [ DW_TAG_class_field_type ]
!848 = metadata !{metadata !849}
!849 = metadata !{i32 786438, metadata !144, metadata !"sc_in<bool>", metadata !146, i32 370, i64 8, i64 8, i32 0, i32 0, null, metadata !850, i32 0, null, metadata !192} ; [ DW_TAG_class_field_type ]
!850 = metadata !{metadata !851}
!851 = metadata !{i32 786438, metadata !144, metadata !"sc_port_b<_ap_sc_::sc_core::sc_signal_in_if<bool> >", metadata !146, i32 281, i64 8, i64 8, i32 0, i32 0, null, metadata !852, i32 0, null, metadata !225} ; [ DW_TAG_class_field_type ]
!852 = metadata !{metadata !853}
!853 = metadata !{i32 786438, metadata !144, metadata !"sc_signal_in_if<bool>", metadata !146, i32 172, i64 8, i64 8, i32 0, i32 0, null, metadata !854, i32 0, null, metadata !192} ; [ DW_TAG_class_field_type ]
!854 = metadata !{metadata !170}
!855 = metadata !{i32 8, i32 8, metadata !135, null}
!856 = metadata !{i32 790531, metadata !134, metadata !"mux_4to1.in1.m_if.Val", null, i32 8, metadata !846, i32 0, i32 0} ; [ DW_TAG_arg_variable_field ]
!857 = metadata !{i32 790531, metadata !134, metadata !"mux_4to1.in2.m_if.Val", null, i32 8, metadata !846, i32 0, i32 0} ; [ DW_TAG_arg_variable_field ]
!858 = metadata !{i32 790531, metadata !134, metadata !"mux_4to1.in3.m_if.Val", null, i32 8, metadata !846, i32 0, i32 0} ; [ DW_TAG_arg_variable_field ]
!859 = metadata !{i32 790531, metadata !134, metadata !"mux_4to1.sel.m_if.Val.V", null, i32 8, metadata !860, i32 0, i32 0} ; [ DW_TAG_arg_variable_field ]
!860 = metadata !{i32 786447, null, metadata !"", null, i32 0, i64 64, i64 64, i64 0, i32 0, metadata !861} ; [ DW_TAG_pointer_type ]
!861 = metadata !{i32 786438, null, metadata !"mux_4to1", metadata !136, i32 3, i64 2, i64 8, i32 0, i32 0, null, metadata !862, i32 0, null, null} ; [ DW_TAG_class_field_type ]
!862 = metadata !{metadata !863}
!863 = metadata !{i32 786438, metadata !144, metadata !"sc_in<_ap_sc_::sc_dt::sc_uint<2> >", metadata !146, i32 342, i64 2, i64 8, i32 0, i32 0, null, metadata !864, i32 0, null, metadata !690} ; [ DW_TAG_class_field_type ]
!864 = metadata !{metadata !865}
!865 = metadata !{i32 786438, metadata !144, metadata !"sc_port_b<_ap_sc_::sc_core::sc_signal_in_if<_ap_sc_::sc_dt::sc_uint<2> > >", metadata !146, i32 281, i64 2, i64 8, i32 0, i32 0, null, metadata !866, i32 0, null, metadata !717} ; [ DW_TAG_class_field_type ]
!866 = metadata !{metadata !867}
!867 = metadata !{i32 786438, metadata !144, metadata !"sc_signal_in_if<_ap_sc_::sc_dt::sc_uint<2> >", metadata !146, i32 172, i64 2, i64 8, i32 0, i32 0, null, metadata !868, i32 0, null, metadata !690} ; [ DW_TAG_class_field_type ]
!868 = metadata !{metadata !869}
!869 = metadata !{i32 786438, metadata !275, metadata !"sc_uint<2>", metadata !277, i32 269, i64 2, i64 8, i32 0, i32 0, null, metadata !870, i32 0, null, metadata !670} ; [ DW_TAG_class_field_type ]
!870 = metadata !{metadata !871}
!871 = metadata !{i32 786438, null, metadata !"ap_int_base<2, false, true>", metadata !281, i32 1386, i64 2, i64 8, i32 0, i32 0, null, metadata !872, i32 0, null, metadata !581} ; [ DW_TAG_class_field_type ]
!872 = metadata !{metadata !873}
!873 = metadata !{i32 786438, null, metadata !"ssdm_int<2 + 1024 * 0, false>", metadata !285, i32 6, i64 2, i64 8, i32 0, i32 0, null, metadata !874, i32 0, null, metadata !293} ; [ DW_TAG_class_field_type ]
!874 = metadata !{metadata !287}
!875 = metadata !{i32 790531, metadata !134, metadata !"mux_4to1.out.m_if.Val", null, i32 8, metadata !876, i32 0, i32 0} ; [ DW_TAG_arg_variable_field ]
!876 = metadata !{i32 786447, null, metadata !"", null, i32 0, i64 64, i64 64, i64 0, i32 0, metadata !877} ; [ DW_TAG_pointer_type ]
!877 = metadata !{i32 786438, null, metadata !"mux_4to1", metadata !136, i32 3, i64 8, i64 8, i32 0, i32 0, null, metadata !878, i32 0, null, null} ; [ DW_TAG_class_field_type ]
!878 = metadata !{metadata !879}
!879 = metadata !{i32 786438, metadata !144, metadata !"sc_out<bool>", metadata !146, i32 440, i64 8, i64 8, i32 0, i32 0, null, metadata !880, i32 0, null, metadata !818} ; [ DW_TAG_class_field_type ]
!880 = metadata !{metadata !881}
!881 = metadata !{i32 786438, metadata !144, metadata !"sc_inout<bool>", metadata !146, i32 419, i64 8, i64 8, i32 0, i32 0, null, metadata !882, i32 0, null, metadata !818} ; [ DW_TAG_class_field_type ]
!882 = metadata !{metadata !883}
!883 = metadata !{i32 786438, metadata !144, metadata !"sc_port_b<_ap_sc_::sc_core::sc_signal_inout_if<bool> >", metadata !146, i32 281, i64 8, i64 8, i32 0, i32 0, null, metadata !884, i32 0, null, metadata !791} ; [ DW_TAG_class_field_type ]
!884 = metadata !{metadata !885}
!885 = metadata !{i32 786438, metadata !144, metadata !"sc_signal_inout_if<bool>", metadata !146, i32 193, i64 8, i64 8, i32 0, i32 0, null, metadata !852, i32 0, null, metadata !192} ; [ DW_TAG_class_field_type ]
!886 = metadata !{i32 9, i32 4, metadata !887, null}
!887 = metadata !{i32 786443, metadata !135, i32 9, i32 1, metadata !136, i32 2} ; [ DW_TAG_lexical_block ]
!888 = metadata !{i32 10, i32 3, metadata !887, null}
!889 = metadata !{i32 11, i32 3, metadata !887, null}
!890 = metadata !{i32 12, i32 3, metadata !887, null}
!891 = metadata !{i32 13, i32 3, metadata !887, null}
!892 = metadata !{i32 14, i32 3, metadata !887, null}
!893 = metadata !{i32 15, i32 3, metadata !887, null}
!894 = metadata !{i32 15, i32 157, metadata !887, null}
!895 = metadata !{i32 15, i32 230, metadata !887, null}
!896 = metadata !{i32 374, i32 13, metadata !897, metadata !899}
!897 = metadata !{i32 786443, metadata !898, i32 373, i32 97, metadata !277, i32 14} ; [ DW_TAG_lexical_block ]
!898 = metadata !{i32 786478, i32 0, metadata !275, metadata !"operator=", metadata !"operator=", metadata !"_ZN7_ap_sc_5sc_dt7sc_uintILi2EEaSERVKS2_", metadata !277, i32 373, metadata !663, i1 false, i1 true, i32 0, i32 0, null, i32 256, i1 false, null, null, metadata !662, metadata !158, i32 373} ; [ DW_TAG_subprogram ]
!899 = metadata !{i32 60, i32 21, metadata !900, metadata !908}
!900 = metadata !{i32 786443, metadata !901, i32 59, i32 88, metadata !907, i32 13} ; [ DW_TAG_lexical_block ]
!901 = metadata !{i32 786478, i32 0, metadata !146, metadata !"_ssdm_op_READ<2>", metadata !"_ssdm_op_READ<2>", metadata !"_Z13_ssdm_op_READILi2EEN7_ap_sc_5sc_dt7sc_uintIXT_EEERVS3_", metadata !146, i32 105, metadata !902, i1 false, i1 true, i32 0, i32 0, null, i32 256, i1 false, null, metadata !905, null, metadata !158, i32 59} ; [ DW_TAG_subprogram ]
!902 = metadata !{i32 786453, i32 0, metadata !"", i32 0, i32 0, i64 0, i64 0, i64 0, i32 0, null, metadata !903, i32 0, i32 0} ; [ DW_TAG_subroutine_type ]
!903 = metadata !{metadata !274, metadata !904}
!904 = metadata !{i32 786448, null, null, null, i32 0, i64 0, i64 0, i64 0, i32 0, metadata !273} ; [ DW_TAG_reference_type ]
!905 = metadata !{metadata !906}
!906 = metadata !{i32 786480, null, metadata !"W", metadata !295, i64 2, null, i32 0, i32 0} ; [ DW_TAG_template_value_parameter ]
!907 = metadata !{i32 786473, metadata !"C:/Xilinx/Vivado_HLS/2015.4/common/technology/autopilot/ap_sysc/ap_sc_extras.h", metadata !"c:/HOC_TAP/System_C/Final_report/A_Design_problem/3.4_bit_multiplexor_4to1", null} ; [ DW_TAG_file_type ]
!908 = metadata !{i32 180, i32 66, metadata !909, metadata !911}
!909 = metadata !{i32 786443, metadata !910, i32 180, i32 56, metadata !146, i32 12} ; [ DW_TAG_lexical_block ]
!910 = metadata !{i32 786478, i32 0, metadata !144, metadata !"read", metadata !"read", metadata !"_ZN7_ap_sc_7sc_core15sc_signal_in_ifINS_5sc_dt7sc_uintILi2EEEE4readEv", metadata !146, i32 180, metadata !677, i1 false, i1 true, i32 0, i32 0, null, i32 256, i1 false, null, null, metadata !676, metadata !158, i32 180} ; [ DW_TAG_subprogram ]
!911 = metadata !{i32 351, i32 73, metadata !912, metadata !914}
!912 = metadata !{i32 786443, metadata !913, i32 351, i32 64, metadata !146, i32 11} ; [ DW_TAG_lexical_block ]
!913 = metadata !{i32 786478, i32 0, metadata !144, metadata !"read", metadata !"read", metadata !"_ZN7_ap_sc_7sc_core5sc_inINS_5sc_dt7sc_uintILi2EEEE4readEv", metadata !146, i32 351, metadata !727, i1 false, i1 true, i32 0, i32 0, null, i32 256, i1 false, null, null, metadata !726, metadata !158, i32 351} ; [ DW_TAG_subprogram ]
!914 = metadata !{i32 9, i32 9, metadata !887, null}
!915 = metadata !{i32 790529, metadata !916, metadata !"val.V", null, i32 60, metadata !869, i32 0, i32 0} ; [ DW_TAG_auto_variable_field ]
!916 = metadata !{i32 786688, metadata !900, metadata !"val", metadata !907, i32 60, metadata !665, i32 0, i32 0} ; [ DW_TAG_auto_variable ]
!917 = metadata !{i32 786689, metadata !918, metadata !"P", metadata !907, i32 16777382, metadata !921, i32 0, i32 0} ; [ DW_TAG_arg_variable ]
!918 = metadata !{i32 786478, i32 0, metadata !907, metadata !"_ssdm_op_READ<bool>", metadata !"_ssdm_op_READ<bool>", metadata !"_Z13_ssdm_op_READIbET_RVS0_", metadata !907, i32 166, metadata !919, i1 false, i1 true, i32 0, i32 0, null, i32 256, i1 false, null, metadata !922, null, metadata !158, i32 166} ; [ DW_TAG_subprogram ]
!919 = metadata !{i32 786453, i32 0, metadata !"", i32 0, i32 0, i64 0, i64 0, i64 0, i32 0, null, metadata !920, i32 0, i32 0} ; [ DW_TAG_subroutine_type ]
!920 = metadata !{metadata !172, metadata !921}
!921 = metadata !{i32 786448, null, null, null, i32 0, i64 0, i64 0, i64 0, i32 0, metadata !171} ; [ DW_TAG_reference_type ]
!922 = metadata !{metadata !923}
!923 = metadata !{i32 786479, null, metadata !"T1", metadata !172, null, i32 0, i32 0} ; [ DW_TAG_template_type_parameter ]
!924 = metadata !{i32 166, i32 90, metadata !918, metadata !925}
!925 = metadata !{i32 180, i32 66, metadata !926, metadata !928}
!926 = metadata !{i32 786443, metadata !927, i32 180, i32 56, metadata !146, i32 5} ; [ DW_TAG_lexical_block ]
!927 = metadata !{i32 786478, i32 0, metadata !144, metadata !"read", metadata !"read", metadata !"_ZN7_ap_sc_7sc_core15sc_signal_in_ifIbE4readEv", metadata !146, i32 180, metadata !178, i1 false, i1 true, i32 0, i32 0, null, i32 256, i1 false, null, null, metadata !177, metadata !158, i32 180} ; [ DW_TAG_subprogram ]
!928 = metadata !{i32 382, i32 68, metadata !929, metadata !931}
!929 = metadata !{i32 786443, metadata !930, i32 382, i32 59, metadata !146, i32 4} ; [ DW_TAG_lexical_block ]
!930 = metadata !{i32 786478, i32 0, metadata !144, metadata !"read", metadata !"read", metadata !"_ZN7_ap_sc_7sc_core5sc_inIbE4readEv", metadata !146, i32 382, metadata !241, i1 false, i1 true, i32 0, i32 0, null, i32 256, i1 false, null, null, metadata !240, metadata !158, i32 382} ; [ DW_TAG_subprogram ]
!931 = metadata !{i32 10, i32 31, metadata !932, null}
!932 = metadata !{i32 786443, metadata !887, i32 9, i32 21, metadata !136, i32 3} ; [ DW_TAG_lexical_block ]
!933 = metadata !{i32 166, i32 95, metadata !934, metadata !925}
!934 = metadata !{i32 786443, metadata !918, i32 166, i32 93, metadata !907, i32 6} ; [ DW_TAG_lexical_block ]
!935 = metadata !{i32 786688, metadata !926, metadata !"tmp", metadata !146, i32 180, metadata !172, i32 0, i32 0} ; [ DW_TAG_auto_variable ]
!936 = metadata !{i32 786688, metadata !937, metadata !"v", metadata !146, i32 206, metadata !172, i32 0, i32 0} ; [ DW_TAG_auto_variable ]
!937 = metadata !{i32 786443, metadata !938, i32 205, i32 73, metadata !146, i32 8} ; [ DW_TAG_lexical_block ]
!938 = metadata !{i32 786478, i32 0, metadata !144, metadata !"write<bool>", metadata !"write<bool>", metadata !"_ZN7_ap_sc_7sc_core18sc_signal_inout_ifIbE5writeIbEEvRKT_", metadata !146, i32 205, metadata !939, i1 false, i1 true, i32 0, i32 0, null, i32 256, i1 false, null, metadata !941, null, metadata !158, i32 205} ; [ DW_TAG_subprogram ]
!939 = metadata !{i32 786453, i32 0, metadata !"", i32 0, i32 0, i64 0, i64 0, i64 0, i32 0, null, metadata !940, i32 0, i32 0} ; [ DW_TAG_subroutine_type ]
!940 = metadata !{null, metadata !760, metadata !803}
!941 = metadata !{metadata !942}
!942 = metadata !{i32 786479, null, metadata !"_T2", metadata !172, null, i32 0, i32 0} ; [ DW_TAG_template_type_parameter ]
!943 = metadata !{i32 206, i32 21, metadata !937, metadata !944}
!944 = metadata !{i32 427, i32 73, metadata !945, metadata !931}
!945 = metadata !{i32 786443, metadata !946, i32 427, i32 71, metadata !146, i32 7} ; [ DW_TAG_lexical_block ]
!946 = metadata !{i32 786478, i32 0, metadata !144, metadata !"write", metadata !"write", metadata !"_ZN7_ap_sc_7sc_core8sc_inoutIbE5writeERKb", metadata !146, i32 427, metadata !801, i1 false, i1 true, i32 0, i32 0, null, i32 256, i1 false, null, null, metadata !800, metadata !158, i32 427} ; [ DW_TAG_subprogram ]
!947 = metadata !{i32 786689, metadata !948, metadata !"P", metadata !146, i32 16777344, metadata !921, i32 0, i32 0} ; [ DW_TAG_arg_variable ]
!948 = metadata !{i32 786478, i32 0, metadata !146, metadata !"_ssdm_op_WRITE<bool>", metadata !"_ssdm_op_WRITE<bool>", metadata !"_Z14_ssdm_op_WRITEIbEvRVbRKT_", metadata !146, i32 128, metadata !949, i1 false, i1 true, i32 0, i32 0, null, i32 256, i1 false, null, metadata !951, null, metadata !158, i32 167} ; [ DW_TAG_subprogram ]
!949 = metadata !{i32 786453, i32 0, metadata !"", i32 0, i32 0, i64 0, i64 0, i64 0, i32 0, null, metadata !950, i32 0, i32 0} ; [ DW_TAG_subroutine_type ]
!950 = metadata !{null, metadata !921, metadata !803}
!951 = metadata !{metadata !952}
!952 = metadata !{i32 786479, null, metadata !"T2", metadata !172, null, i32 0, i32 0} ; [ DW_TAG_template_type_parameter ]
!953 = metadata !{i32 128, i32 96, metadata !948, metadata !954}
!954 = metadata !{i32 207, i32 13, metadata !937, metadata !944}
!955 = metadata !{i32 167, i32 116, metadata !956, metadata !954}
!956 = metadata !{i32 786443, metadata !948, i32 167, i32 114, metadata !907, i32 9} ; [ DW_TAG_lexical_block ]
!957 = metadata !{i32 10, i32 44, metadata !932, null}
!958 = metadata !{i32 166, i32 90, metadata !918, metadata !959}
!959 = metadata !{i32 180, i32 66, metadata !926, metadata !960}
!960 = metadata !{i32 382, i32 68, metadata !929, metadata !961}
!961 = metadata !{i32 11, i32 31, metadata !932, null}
!962 = metadata !{i32 166, i32 95, metadata !934, metadata !959}
!963 = metadata !{i32 206, i32 21, metadata !937, metadata !964}
!964 = metadata !{i32 427, i32 73, metadata !945, metadata !961}
!965 = metadata !{i32 128, i32 96, metadata !948, metadata !966}
!966 = metadata !{i32 207, i32 13, metadata !937, metadata !964}
!967 = metadata !{i32 167, i32 116, metadata !956, metadata !966}
!968 = metadata !{i32 11, i32 44, metadata !932, null}
!969 = metadata !{i32 166, i32 90, metadata !918, metadata !970}
!970 = metadata !{i32 180, i32 66, metadata !926, metadata !971}
!971 = metadata !{i32 382, i32 68, metadata !929, metadata !972}
!972 = metadata !{i32 12, i32 31, metadata !932, null}
!973 = metadata !{i32 166, i32 95, metadata !934, metadata !970}
!974 = metadata !{i32 206, i32 21, metadata !937, metadata !975}
!975 = metadata !{i32 427, i32 73, metadata !945, metadata !972}
!976 = metadata !{i32 128, i32 96, metadata !948, metadata !977}
!977 = metadata !{i32 207, i32 13, metadata !937, metadata !975}
!978 = metadata !{i32 167, i32 116, metadata !956, metadata !977}
!979 = metadata !{i32 12, i32 44, metadata !932, null}
!980 = metadata !{i32 166, i32 90, metadata !918, metadata !981}
!981 = metadata !{i32 180, i32 66, metadata !926, metadata !982}
!982 = metadata !{i32 382, i32 68, metadata !929, metadata !983}
!983 = metadata !{i32 13, i32 31, metadata !932, null}
!984 = metadata !{i32 166, i32 95, metadata !934, metadata !981}
!985 = metadata !{i32 206, i32 21, metadata !937, metadata !986}
!986 = metadata !{i32 427, i32 73, metadata !945, metadata !983}
!987 = metadata !{i32 128, i32 96, metadata !948, metadata !988}
!988 = metadata !{i32 207, i32 13, metadata !937, metadata !986}
!989 = metadata !{i32 167, i32 116, metadata !956, metadata !988}
!990 = metadata !{i32 13, i32 44, metadata !932, null}
!991 = metadata !{i32 128, i32 96, metadata !948, metadata !992}
!992 = metadata !{i32 207, i32 13, metadata !937, metadata !993}
!993 = metadata !{i32 427, i32 73, metadata !945, metadata !994}
!994 = metadata !{i32 14, i32 22, metadata !932, null}
!995 = metadata !{i32 167, i32 116, metadata !956, metadata !992}
!996 = metadata !{i32 14, i32 40, metadata !932, null}
!997 = metadata !{i32 15, i32 10, metadata !887, null}
!998 = metadata !{i32 15, i32 49, metadata !887, null}
!999 = metadata !{i32 790531, metadata !1000, metadata !"mux_4to1.in0.m_if.Val", null, i32 17, metadata !846, i32 0, i32 0} ; [ DW_TAG_arg_variable_field ]
!1000 = metadata !{i32 786689, metadata !1001, metadata !"this", metadata !136, i32 16777233, metadata !845, i32 64, i32 0} ; [ DW_TAG_arg_variable ]
!1001 = metadata !{i32 786478, i32 0, null, metadata !"mux_4to1", metadata !"mux_4to1", metadata !"_ZN8mux_4to1C2EN7_ap_sc_7sc_core14sc_module_nameE", metadata !136, i32 17, metadata !829, i1 false, i1 true, i32 0, i32 0, null, i32 256, i1 false, null, null, metadata !828, metadata !158, i32 18} ; [ DW_TAG_subprogram ]
!1002 = metadata !{i32 17, i32 3, metadata !1001, null}
!1003 = metadata !{i32 790531, metadata !1000, metadata !"mux_4to1.in1.m_if.Val", null, i32 17, metadata !846, i32 0, i32 0} ; [ DW_TAG_arg_variable_field ]
!1004 = metadata !{i32 790531, metadata !1000, metadata !"mux_4to1.in2.m_if.Val", null, i32 17, metadata !846, i32 0, i32 0} ; [ DW_TAG_arg_variable_field ]
!1005 = metadata !{i32 790531, metadata !1000, metadata !"mux_4to1.in3.m_if.Val", null, i32 17, metadata !846, i32 0, i32 0} ; [ DW_TAG_arg_variable_field ]
!1006 = metadata !{i32 790531, metadata !1000, metadata !"mux_4to1.sel.m_if.Val.V", null, i32 17, metadata !860, i32 0, i32 0} ; [ DW_TAG_arg_variable_field ]
!1007 = metadata !{i32 790531, metadata !1000, metadata !"mux_4to1.out.m_if.Val", null, i32 17, metadata !876, i32 0, i32 0} ; [ DW_TAG_arg_variable_field ]
!1008 = metadata !{i32 19, i32 5, metadata !1009, null}
!1009 = metadata !{i32 786443, metadata !1001, i32 18, i32 2, metadata !136, i32 1} ; [ DW_TAG_lexical_block ]
!1010 = metadata !{i32 20, i32 5, metadata !1009, null}
!1011 = metadata !{i32 20, i32 38, metadata !1009, null}
!1012 = metadata !{i32 20, i32 53, metadata !1009, null}
!1013 = metadata !{i32 21, i32 5, metadata !1009, null}
!1014 = metadata !{i32 22, i32 5, metadata !1009, null}
!1015 = metadata !{i32 23, i32 5, metadata !1009, null}
!1016 = metadata !{i32 24, i32 5, metadata !1009, null}
!1017 = metadata !{i32 25, i32 5, metadata !1009, null}
!1018 = metadata !{i32 26, i32 5, metadata !1009, null}
!1019 = metadata !{i32 27, i32 5, metadata !1009, null}
!1020 = metadata !{i32 28, i32 5, metadata !1009, null}
!1021 = metadata !{i32 29, i32 5, metadata !1009, null}
!1022 = metadata !{i32 30, i32 5, metadata !1009, null}
!1023 = metadata !{i32 31, i32 5, metadata !1009, null}
!1024 = metadata !{i32 21, i32 1, metadata !1009, null}
!1025 = metadata !{metadata !1026}
!1026 = metadata !{i32 0, i32 3, metadata !1027}
!1027 = metadata !{metadata !1028}
!1028 = metadata !{metadata !"mux4bit_4to1.in0.m_if.Val.V", metadata !5, metadata !"uint4", i32 0, i32 3}
!1029 = metadata !{metadata !1030}
!1030 = metadata !{i32 0, i32 3, metadata !1031}
!1031 = metadata !{metadata !1032}
!1032 = metadata !{metadata !"mux4bit_4to1.in1.m_if.Val.V", metadata !5, metadata !"uint4", i32 0, i32 3}
!1033 = metadata !{metadata !1034}
!1034 = metadata !{i32 0, i32 3, metadata !1035}
!1035 = metadata !{metadata !1036}
!1036 = metadata !{metadata !"mux4bit_4to1.in2.m_if.Val.V", metadata !5, metadata !"uint4", i32 0, i32 3}
!1037 = metadata !{metadata !1038}
!1038 = metadata !{i32 0, i32 3, metadata !1039}
!1039 = metadata !{metadata !1040}
!1040 = metadata !{metadata !"mux4bit_4to1.in3.m_if.Val.V", metadata !5, metadata !"uint4", i32 0, i32 3}
!1041 = metadata !{metadata !1042}
!1042 = metadata !{i32 0, i32 1, metadata !1043}
!1043 = metadata !{metadata !1044}
!1044 = metadata !{metadata !"mux4bit_4to1.sel.m_if.Val.V", metadata !5, metadata !"uint2", i32 0, i32 1}
!1045 = metadata !{metadata !1046}
!1046 = metadata !{i32 0, i32 3, metadata !1047}
!1047 = metadata !{metadata !1048}
!1048 = metadata !{metadata !"mux4bit_4to1.out.m_if.Val.V", metadata !5, metadata !"uint4", i32 0, i32 3}
